

Microchip MPLAB XC8 Assembler V2.45 build 20230818022343 
                                                                                               Sat Oct 05 18:56:32 2024

Microchip MPLAB XC8 C Compiler v2.45 (Free license) build 20230818022343 Og1 
     1                           	processor	18F46K20
     2                           	fnconf	rparam,??,?,0
     3                           	pagewidth 120
     4                           	opt	flic
     5                           	psect	idataCOMRAM,global,class=CODE,delta=1,noexec
     6                           	psect	idataBANK0,global,class=CODE,delta=1,noexec
     7                           	psect	smallconst,global,reloc=2,class=SMALLCONST,delta=1,noexec
     8                           	psect	cinit,global,reloc=2,class=CODE,delta=1
     9                           	psect	bssCOMRAM,global,class=COMRAM,space=1,delta=1,lowdata,noexec
    10                           	psect	dataCOMRAM,global,class=COMRAM,space=1,delta=1,lowdata,noexec
    11                           	psect	bssBANK0,global,class=BANK0,space=1,delta=1,lowdata,noexec
    12                           	psect	dataBANK0,global,class=BANK0,space=1,delta=1,lowdata,noexec
    13                           	psect	cstackCOMRAM,global,class=COMRAM,space=1,delta=1,lowdata,noexec
    14                           	psect	text0,global,reloc=2,class=CODE,delta=1
    15                           	psect	text1,global,reloc=2,class=CODE,delta=1
    16                           	psect	text2,global,reloc=2,class=CODE,delta=1
    17                           	psect	text3,global,reloc=2,class=CODE,delta=1
    18                           	psect	text4,global,reloc=2,class=CODE,delta=1
    19                           	psect	text5,global,reloc=2,class=CODE,delta=1
    20                           	psect	text6,global,reloc=2,class=CODE,delta=1
    21                           	psect	text7,global,reloc=2,class=CODE,delta=1
    22                           	psect	text8,global,reloc=2,class=CODE,delta=1
    23                           	psect	text9,global,reloc=2,class=CODE,delta=1
    24                           	psect	text10,global,reloc=2,class=CODE,delta=1
    25                           	psect	text11,global,reloc=2,class=CODE,delta=1
    26                           	psect	text12,global,reloc=2,class=CODE,delta=1
    27                           	psect	text13,global,reloc=2,class=CODE,delta=1
    28                           	psect	text14,global,reloc=2,class=CODE,delta=1
    29                           	psect	text15,global,reloc=2,class=CODE,delta=1
    30                           	psect	text16,global,reloc=2,class=CODE,delta=1
    31                           	psect	text17,global,reloc=2,class=CODE,delta=1
    32                           	psect	text18,global,reloc=2,class=CODE,delta=1
    33                           	psect	text19,global,reloc=2,class=CODE,delta=1
    34                           	psect	text20,global,reloc=2,class=CODE,delta=1,group=1
    35                           	psect	text21,global,reloc=2,class=CODE,delta=1
    36                           	psect	text22,global,reloc=2,class=CODE,delta=1
    37                           	psect	text23,global,reloc=2,class=CODE,delta=1
    38                           	psect	text24,global,reloc=2,class=CODE,delta=1
    39                           	psect	text25,global,reloc=2,class=CODE,delta=1
    40                           	psect	text26,global,reloc=2,class=CODE,delta=1
    41                           	psect	text27,global,reloc=2,class=CODE,delta=1
    42                           	psect	text28,global,reloc=2,class=CODE,delta=1
    43                           	psect	text29,global,reloc=2,class=CODE,delta=1
    44                           	psect	text30,global,reloc=2,class=CODE,delta=1
    45                           	psect	text31,global,reloc=2,class=CODE,delta=1
    46                           	psect	intsave_regs,global,class=BIGRAM,space=1,delta=1,noexec
    47                           	psect	rparam,global,class=COMRAM,space=1,delta=1,noexec
    48                           	psect	config,global,abs,ovrld,class=CONFIG,space=4,delta=1,noexec
    49   000000                     
    50                           ; Generated 12/10/2023 GMT
    51                           ; 
    52                           ; Copyright © 2023, Microchip Technology Inc. and its subsidiaries ("Microchip")
    53                           ; All rights reserved.
    54                           ; 
    55                           ; This software is developed by Microchip Technology Inc. and its subsidiaries ("Microch
      +                          ip").
    56                           ; 
    57                           ; Redistribution and use in source and binary forms, with or without modification, are
    58                           ; permitted provided that the following conditions are met:
    59                           ; 
    60                           ;     1. Redistributions of source code must retain the above copyright notice, this lis
      +                          t of
    61                           ;        conditions and the following disclaimer.
    62                           ; 
    63                           ;     2. Redistributions in binary form must reproduce the above copyright notice, this 
      +                          list
    64                           ;        of conditions and the following disclaimer in the documentation and/or other
    65                           ;        materials provided with the distribution. Publication is not required when
    66                           ;        this file is used in an embedded application.
    67                           ; 
    68                           ;     3. Microchip's name may not be used to endorse or promote products derived from th
      +                          is
    69                           ;        software without specific prior written permission.
    70                           ; 
    71                           ; THIS SOFTWARE IS PROVIDED BY MICROCHIP "AS IS" AND ANY EXPRESS OR IMPLIED WARRANTIES,
    72                           ; INCLUDING, BUT NOT LIMITED TO, THE IMPLIED WARRANTIES OF MERCHANTABILITY AND FITNESS F
      +                          OR
    73                           ; PURPOSE ARE DISCLAIMED.  IN NO EVENT SHALL MICROCHIP BE LIABLE FOR ANY DIRECT, INDIREC
      +                          T,
    74                           ; INCIDENTAL, SPECIAL, EXEMPLARY, OR CONSEQUENTIAL DAMAGES (INCLUDING BUT NOT LIMITED TO
    75                           ; PROCUREMENT OF SUBSTITUTE GOODS OR SERVICES; LOSS OF USE, DATA OR PROFITS; OR BUSINESS
    76                           ; INTERRUPTION) HOWSOEVER CAUSED AND ON ANY THEORY OF LIABILITY, WHETHER IN CONTRACT, ST
      +                          RICT
    77                           ; LIABILITY, OR TORT (INCLUDING NEGLIGENCE OR OTHERWISE) ARISING IN ANY WAY OUT OF THE U
      +                          SE OF
    78                           ; THIS SOFTWARE, EVEN IF ADVISED OF THE POSSIBILITY OF SUCH DAMAGE.
    79                           ; 
    80                           ; 
    81                           ; Code-generator required, PIC18F46K20 Definitions
    82                           ; 
    83                           ; SFR Addresses
    84   000000                     
    85                           	psect	idataCOMRAM
    86   002342                     __pidataCOMRAM:
    87                           	callstack 0
    88                           
    89                           ;initializer for _lat_register
    90   002342  89                 	db	137
    91   002343  0F                 	db	15
    92   002344  8A                 	db	138
    93   002345  0F                 	db	15
    94   002346  8B                 	db	139
    95   002347  0F                 	db	15
    96   002348  8C                 	db	140
    97   002349  0F                 	db	15
    98   00234A  8D                 	db	141
    99   00234B  0F                 	db	15
   100                           
   101                           ;initializer for _tris_register
   102   00234C  92                 	db	146
   103   00234D  0F                 	db	15
   104   00234E  93                 	db	147
   105   00234F  0F                 	db	15
   106   002350  94                 	db	148
   107   002351  0F                 	db	15
   108   002352  95                 	db	149
   109   002353  0F                 	db	15
   110   002354  96                 	db	150
   111   002355  0F                 	db	15
   112                           
   113                           ;initializer for _lcd1
   114   002356  1A                 	db	26
   115   002357  1B                 	db	27
   116   002358  1C                 	db	28
   117   002359  1D                 	db	29
   118   00235A  18                 	db	24
   119   00235B  19                 	db	25
   120                           
   121                           ;initializer for _motor_1
   122   00235C  10                 	db	16
   123   00235D  20                 	db	32
   124                           
   125                           	psect	idataBANK0
   126   002376                     __pidataBANK0:
   127                           	callstack 0
   128                           
   129                           ;initializer for _port_register
   130   002376  80                 	db	128
   131   002377  0F                 	db	15
   132   002378  81                 	db	129
   133   002379  0F                 	db	15
   134   00237A  82                 	db	130
   135   00237B  0F                 	db	15
   136   00237C  83                 	db	131
   137   00237D  0F                 	db	15
   138   00237E  84                 	db	132
   139   00237F  0F                 	db	15
   140                           
   141                           ;initializer for _key1
   142   002380  1E                 	db	30
   143   002381  1F                 	db	31
   144   002382  20                 	db	32
   145   002383  21                 	db	33
   146   002384  90                 	db	144
   147   002385  8D                 	db	141
   148   002386  8E                 	db	142
   149   002387  8F                 	db	143
   150                           
   151                           	psect	smallconst
   152   001000                     __psmallconst:
   153                           	callstack 0
   154   001000  00                 	db	0
   155   001001                     _btn_values:
   156                           	callstack 0
   157   001001  37                 	db	55
   158   001002  38                 	db	56
   159   001003  39                 	db	57
   160   001004  2F                 	db	47
   161   001005  34                 	db	52
   162   001006  35                 	db	53
   163   001007  36                 	db	54
   164   001008  2A                 	db	42
   165   001009  31                 	db	49
   166   00100A  32                 	db	50
   167   00100B  33                 	db	51
   168   00100C  2D                 	db	45
   169   00100D  23                 	db	35
   170   00100E  30                 	db	48
   171   00100F  3D                 	db	61
   172   001010  2B                 	db	43
   173   001011                     __end_of_btn_values:
   174                           	callstack 0
   175   000000                     _EEDATA	set	4008
   176   000000                     _EEADR	set	4009
   177   000000                     _EEADRH	set	4010
   178   000000                     _EECON2	set	4007
   179   000000                     _ANSELH	set	3967
   180   000000                     _WPUB	set	3964
   181   000000                     _ANSEL	set	3966
   182   000000                     _PORTA	set	3968
   183   000000                     _TRISA	set	3986
   184   000000                     _OSCTUNE	set	3995
   185   000000                     _OSCCON	set	4051
   186   000000                     _INTCON2bits	set	4081
   187   000000                     _TRISE	set	3990
   188   000000                     _TRISD	set	3989
   189   000000                     _TRISC	set	3988
   190   000000                     _TRISB	set	3987
   191   000000                     _LATA	set	3977
   192   000000                     _PORTE	set	3972
   193   000000                     _PORTD	set	3971
   194   000000                     _PORTC	set	3970
   195   000000                     _PORTB	set	3969
   196   000000                     _LATE	set	3981
   197   000000                     _LATD	set	3980
   198   000000                     _LATC	set	3979
   199   000000                     _LATB	set	3978
   200   000000                     _TABLAT	set	4085
   201   000000                     _TBLPTRL	set	4086
   202   000000                     _TBLPTRH	set	4087
   203   000000                     _TBLPTRU	set	4088
   204   000000                     _INTCONbits	set	4082
   205   000000                     _PIR2bits	set	4001
   206   000000                     _EECON1bits	set	4006
   207   001011                     STR_10:
   208   001011  50                 	db	80	;'P'
   209   001012  4C                 	db	76	;'L'
   210   001013  65                 	db	101	;'e'
   211   001014  61                 	db	97	;'a'
   212   001015  73                 	db	115	;'s'
   213   001016  65                 	db	101	;'e'
   214   001017  20                 	db	32
   215   001018  53                 	db	83	;'S'
   216   001019  65                 	db	101	;'e'
   217   00101A  74                 	db	116	;'t'
   218   00101B  20                 	db	32
   219   00101C  50                 	db	80	;'P'
   220   00101D  61                 	db	97	;'a'
   221   00101E  73                 	db	115	;'s'
   222   00101F  73                 	db	115	;'s'
   223   001020  77                 	db	119	;'w'
   224   001021  6F                 	db	111	;'o'
   225   001022  72                 	db	114	;'r'
   226   001023  64                 	db	100	;'d'
   227   001024  00                 	db	0
   228   001025                     STR_7:
   229   001025  49                 	db	73	;'I'
   230   001026  6E                 	db	110	;'n'
   231   001027  43                 	db	67	;'C'
   232   001028  6F                 	db	111	;'o'
   233   001029  72                 	db	114	;'r'
   234   00102A  72                 	db	114	;'r'
   235   00102B  65                 	db	101	;'e'
   236   00102C  63                 	db	99	;'c'
   237   00102D  74                 	db	116	;'t'
   238   00102E  20                 	db	32
   239   00102F  50                 	db	80	;'P'
   240   001030  61                 	db	97	;'a'
   241   001031  73                 	db	115	;'s'
   242   001032  73                 	db	115	;'s'
   243   001033  77                 	db	119	;'w'
   244   001034  6F                 	db	111	;'o'
   245   001035  72                 	db	114	;'r'
   246   001036  64                 	db	100	;'d'
   247   001037  00                 	db	0
   248   001038                     STR_13:
   249   001038  50                 	db	80	;'P'
   250   001039  6C                 	db	108	;'l'
   251   00103A  65                 	db	101	;'e'
   252   00103B  61                 	db	97	;'a'
   253   00103C  73                 	db	115	;'s'
   254   00103D  65                 	db	101	;'e'
   255   00103E  20                 	db	32
   256   00103F  45                 	db	69	;'E'
   257   001040  6E                 	db	110	;'n'
   258   001041  74                 	db	116	;'t'
   259   001042  65                 	db	101	;'e'
   260   001043  72                 	db	114	;'r'
   261   001044  20                 	db	32
   262   001045  50                 	db	80	;'P'
   263   001046  61                 	db	97	;'a'
   264   001047  73                 	db	115	;'s'
   265   001048  73                 	db	115	;'s'
   266   001049  00                 	db	0
   267   00104A                     STR_8:
   268   00104A  54                 	db	84	;'T'
   269   00104B  72                 	db	114	;'r'
   270   00104C  79                 	db	121	;'y'
   271   00104D  20                 	db	32
   272   00104E  61                 	db	97	;'a'
   273   00104F  67                 	db	103	;'g'
   274   001050  61                 	db	97	;'a'
   275   001051  69                 	db	105	;'i'
   276   001052  6E                 	db	110	;'n'
   277   001053  00                 	db	0
   278   001054                     STR_9:
   279   001054  20                 	db	32
   280   001055  57                 	db	87	;'W'
   281   001056  65                 	db	101	;'e'
   282   001057  6C                 	db	108	;'l'
   283   001058  63                 	db	99	;'c'
   284   001059  6F                 	db	111	;'o'
   285   00105A  6D                 	db	109	;'m'
   286   00105B  00                 	db	0
   287   00105C  25                 	db	37
   288   00105D  2E                 	db	46
   289   00105E  31                 	db	49	;'1'
   290   00105F  66                 	db	102	;'f'
   291   001060  00                 	db	0
   292   001061  25                 	db	37
   293   001062  2E                 	db	46
   294   001063  36                 	db	54	;'6'
   295   001064  66                 	db	102	;'f'
   296   001065  00                 	db	0
   297   001066                     STR_1:
   298   001066  25                 	db	37
   299   001067  69                 	db	105	;'i'
   300   001068  00                 	db	0
   301   001069                     STR_11:
   302   001069  20                 	db	32
   303   00106A  00                 	db	0
   304   00106B                     STR_12:
   305   00106B  2A                 	db	42
   306   00106C  00                 	db	0
   307   00106D  00                 	db	0	; dummy byte at the end
   308   000000                     
   309                           ; #config settings
   310                           
   311                           	psect	cinit
   312   002032                     __pcinit:
   313                           	callstack 0
   314   002032                     start_initialization:
   315                           	callstack 0
   316   002032                     __initialization:
   317                           	callstack 0
   318                           
   319                           ; Initialize objects allocated to BANK0 (18 bytes)
   320                           ; load TBLPTR registers with __pidataBANK0
   321   002032  0E76               	movlw	low __pidataBANK0
   322   002034  6EF6               	movwf	tblptrl,c
   323   002036  0E23               	movlw	high __pidataBANK0
   324   002038  6EF7               	movwf	tblptrh,c
   325   00203A  0E00               	movlw	low (__pidataBANK0 shr (0+16))
   326   00203C  6EF8               	movwf	tblptru,c
   327   00203E  EE00  F060         	lfsr	0,__pdataBANK0
   328   002042  EE10 F012          	lfsr	1,18
   329   002046                     copy_data0:
   330   002046  0009               	tblrd		*+
   331   002048  CFF5 FFEE          	movff	tablat,postinc0
   332   00204C  50E5               	movf	postdec1,w,c
   333   00204E  50E1               	movf	fsr1l,w,c
   334   002050  E1FA               	bnz	copy_data0
   335                           
   336                           ; Initialize objects allocated to COMRAM (28 bytes)
   337                           ; load TBLPTR registers with __pidataCOMRAM
   338   002052  0E42               	movlw	low __pidataCOMRAM
   339   002054  6EF6               	movwf	tblptrl,c
   340   002056  0E23               	movlw	high __pidataCOMRAM
   341   002058  6EF7               	movwf	tblptrh,c
   342   00205A  0E00               	movlw	low (__pidataCOMRAM shr (0+16))
   343   00205C  6EF8               	movwf	tblptru,c
   344   00205E  EE00  F032         	lfsr	0,__pdataCOMRAM
   345   002062  EE10 F01C          	lfsr	1,28
   346   002066                     copy_data1:
   347   002066  0009               	tblrd		*+
   348   002068  CFF5 FFEE          	movff	tablat,postinc0
   349   00206C  50E5               	movf	postdec1,w,c
   350   00206E  50E1               	movf	fsr1l,w,c
   351   002070  E1FA               	bnz	copy_data1
   352                           
   353                           ; Clear objects allocated to BANK0 (12 bytes)
   354   002072  EE00  F072         	lfsr	0,__pbssBANK0
   355   002076  0E0C               	movlw	12
   356   002078                     clear_0:
   357   002078  6AEE               	clrf	postinc0,c
   358   00207A  06E8               	decf	wreg,f,c
   359   00207C  E1FD               	bnz	clear_0
   360                           
   361                           ; Clear objects allocated to COMRAM (14 bytes)
   362   00207E  EE00  F04E         	lfsr	0,__pbssCOMRAM
   363   002082  0E0E               	movlw	14
   364   002084                     clear_1:
   365   002084  6AEE               	clrf	postinc0,c
   366   002086  06E8               	decf	wreg,f,c
   367   002088  E1FD               	bnz	clear_1
   368   00208A                     end_of_initialization:
   369                           	callstack 0
   370   00208A                     __end_of__initialization:
   371                           	callstack 0
   372   00208A  0E00               	movlw	low (__Lmediumconst shr (0+16))
   373   00208C  6EF8               	movwf	tblptru,c
   374   00208E  0100               	movlb	0
   375   002090  EF37  F008         	goto	_main	;jump to C main() function
   376                           
   377                           	psect	bssCOMRAM
   378   00004E                     __pbssCOMRAM:
   379                           	callstack 0
   380   00004E                     	ds	4
   381   000052                     	ds	4
   382   000056                     _Password:
   383                           	callstack 0
   384   000056                     	ds	2
   385   000058                     _password_check:
   386                           	callstack 0
   387   000058                     	ds	1
   388   000059                     _Program_Count:
   389                           	callstack 0
   390   000059                     	ds	1
   391   00005A                     _ret:
   392                           	callstack 0
   393   00005A                     	ds	1
   394   00005B                     _led_1:
   395                           	callstack 0
   396   00005B                     	ds	1
   397                           
   398                           	psect	dataCOMRAM
   399   000032                     __pdataCOMRAM:
   400                           	callstack 0
   401   000032                     _lat_register:
   402                           	callstack 0
   403   000032                     	ds	10
   404   00003C                     _tris_register:
   405                           	callstack 0
   406   00003C                     	ds	10
   407   000046                     _lcd1:
   408                           	callstack 0
   409   000046                     	ds	6
   410   00004C                     _motor_1:
   411                           	callstack 0
   412   00004C                     	ds	2
   413                           
   414                           	psect	bssBANK0
   415   000072                     __pbssBANK0:
   416                           	callstack 0
   417   000072                     _Password_text:
   418                           	callstack 0
   419   000072                     	ds	6
   420   000078                     	ds	6
   421                           
   422                           	psect	dataBANK0
   423   000060                     __pdataBANK0:
   424                           	callstack 0
   425   000060                     _port_register:
   426                           	callstack 0
   427   000060                     	ds	10
   428   00006A                     _key1:
   429                           	callstack 0
   430   00006A                     	ds	8
   431                           
   432                           	psect	cstackCOMRAM
   433   000001                     __pcstackCOMRAM:
   434                           	callstack 0
   435   000001                     ?___wmul:
   436                           	callstack 0
   437   000001                     gpio_pin_direction_initialize@pin_config:
   438                           	callstack 0
   439   000001                     gpio_pin_write_logic@pin_config:
   440                           	callstack 0
   441   000001                     gpio_pin_read_logic@pin_config:
   442                           	callstack 0
   443   000001                     DATAEE_WriteByte@bAdd:
   444                           	callstack 0
   445   000001                     DATAEE_ReadByte@bAdd:
   446                           	callstack 0
   447   000001                     ___wmul@multiplier:
   448                           	callstack 0
   449                           
   450                           ; 2 bytes @ 0x0
   451   000001                     	ds	1
   452   000002                     ??_gpio_pin_direction_initialize:
   453   000002                     gpio_pin_write_logic@logic:
   454                           	callstack 0
   455   000002                     gpio_pin_read_logic@logic:
   456                           	callstack 0
   457                           
   458                           ; 1 bytes @ 0x1
   459   000002                     	ds	1
   460   000003                     ??_gpio_pin_write_logic:
   461   000003                     ??_gpio_pin_read_logic:
   462   000003                     ?_Read_Password_EEPROM:
   463                           	callstack 0
   464   000003                     DATAEE_WriteByte@bData:
   465                           	callstack 0
   466   000003                     ___wmul@multiplicand:
   467                           	callstack 0
   468                           
   469                           ; 2 bytes @ 0x2
   470   000003                     	ds	1
   471   000004                     DATAEE_WriteByte@GIEBitValue:
   472                           	callstack 0
   473                           
   474                           ; 1 bytes @ 0x3
   475   000004                     	ds	1
   476   000005                     ??_Read_Password_EEPROM:
   477   000005                     ___wmul@product:
   478                           	callstack 0
   479                           
   480                           ; 2 bytes @ 0x4
   481   000005                     	ds	2
   482   000007                     gpio_pin_direction_initialize@Ret:
   483                           	callstack 0
   484   000007                     gpio_pin_read_logic@Ret:
   485                           	callstack 0
   486                           
   487                           ; 1 bytes @ 0x6
   488   000007                     	ds	1
   489   000008                     gpio_pin_write_logic@Ret:
   490                           	callstack 0
   491   000008                     Read_Password_EEPROM@Return_Value:
   492                           	callstack 0
   493                           
   494                           ; 2 bytes @ 0x7
   495   000008                     	ds	1
   496   000009                     keypad_get_value@obj:
   497                           	callstack 0
   498   000009                     lcd_send_4bit@lcd:
   499                           	callstack 0
   500   000009                     lcd_4bit_send_enable_signal@lcd:
   501                           	callstack 0
   502   000009                     led_on@led:
   503                           	callstack 0
   504   000009                     led_off@led:
   505                           	callstack 0
   506   000009                     gpio_pin_initialize@pin_config:
   507                           	callstack 0
   508   000009                     dc_motor_move_right@obj:
   509                           	callstack 0
   510   000009                     dc_motor_stop@obj:
   511                           	callstack 0
   512                           
   513                           ; 1 bytes @ 0x8
   514   000009                     	ds	1
   515   00000A                     ??_gpio_pin_initialize:
   516   00000A                     ??_dc_motor_move_right:
   517   00000A                     ??_dc_motor_stop:
   518   00000A                     ??_led_on:
   519   00000A                     ??_led_off:
   520   00000A                     keypad_get_value@value:
   521                           	callstack 0
   522   00000A                     lcd_send_4bit@value:
   523                           	callstack 0
   524   00000A                     lcd_4bit_send_enable_signal@Ret:
   525                           	callstack 0
   526                           
   527                           ; 1 bytes @ 0x9
   528   00000A                     	ds	1
   529   00000B                     ??_lcd_send_4bit:
   530   00000B                     ??_keypad_get_value:
   531   00000B                     led_on@ret:
   532                           	callstack 0
   533   00000B                     led_off@ret:
   534                           	callstack 0
   535   00000B                     gpio_pin_initialize@Ret:
   536                           	callstack 0
   537   00000B                     dc_motor_move_right@ret:
   538                           	callstack 0
   539   00000B                     dc_motor_stop@ret:
   540                           	callstack 0
   541                           
   542                           ; 1 bytes @ 0xA
   543   00000B                     	ds	1
   544   00000C                     keypad_initialize@obj:
   545                           	callstack 0
   546   00000C                     keypad_get_value@ret:
   547                           	callstack 0
   548   00000C                     led_initialize@led:
   549                           	callstack 0
   550   00000C                     led_on@pin_obj:
   551                           	callstack 0
   552   00000C                     led_off@pin_obj:
   553                           	callstack 0
   554   00000C                     dc_motor_initialize@obj:
   555                           	callstack 0
   556   00000C                     dc_motor_move_right@pin_1:
   557                           	callstack 0
   558   00000C                     dc_motor_stop@pin_1:
   559                           	callstack 0
   560                           
   561                           ; 1 bytes @ 0xB
   562   00000C                     	ds	1
   563   00000D                     ??_dc_motor_initialize:
   564   00000D                     ??_led_initialize:
   565   00000D                     keypad_initialize@ret:
   566                           	callstack 0
   567   00000D                     keypad_get_value@column_logic:
   568                           	callstack 0
   569   00000D                     lcd_send_4bit@Ret:
   570                           	callstack 0
   571   00000D                     dc_motor_move_right@pin_2:
   572                           	callstack 0
   573   00000D                     dc_motor_stop@pin_2:
   574                           	callstack 0
   575                           
   576                           ; 1 bytes @ 0xC
   577   00000D                     	ds	1
   578   00000E                     keypad_initialize@num_row:
   579                           	callstack 0
   580   00000E                     keypad_get_value@count:
   581                           	callstack 0
   582   00000E                     lcd_send_4bit@l_counter:
   583                           	callstack 0
   584   00000E                     led_initialize@ret:
   585                           	callstack 0
   586   00000E                     dc_motor_initialize@ret:
   587                           	callstack 0
   588                           
   589                           ; 1 bytes @ 0xD
   590   00000E                     	ds	1
   591   00000F                     keypad_initialize@num_col:
   592                           	callstack 0
   593   00000F                     keypad_get_value@rows_counter:
   594                           	callstack 0
   595   00000F                     lcd_4bit_send_command@lcd:
   596                           	callstack 0
   597   00000F                     lcd_4bit_send_char_data@lcd:
   598                           	callstack 0
   599   00000F                     led_initialize@pin_obj:
   600                           	callstack 0
   601   00000F                     dc_motor_initialize@pin_1:
   602                           	callstack 0
   603                           
   604                           ; 1 bytes @ 0xE
   605   00000F                     	ds	1
   606   000010                     keypad_get_value@cols_counter:
   607                           	callstack 0
   608   000010                     lcd_4bit_send_command@command:
   609                           	callstack 0
   610   000010                     lcd_4bit_send_char_data@data:
   611                           	callstack 0
   612   000010                     dc_motor_initialize@pin_2:
   613                           	callstack 0
   614                           
   615                           ; 1 bytes @ 0xF
   616   000010                     	ds	1
   617   000011                     lcd_4bit_send_command@Ret:
   618                           	callstack 0
   619   000011                     lcd_4bit_send_char_data@Ret:
   620                           	callstack 0
   621                           
   622                           ; 1 bytes @ 0x10
   623   000011                     	ds	1
   624   000012                     lcd_4bit_initialze@lcd:
   625                           	callstack 0
   626   000012                     lcd_4bit_send_string_data@lcd:
   627                           	callstack 0
   628   000012                     lcd_4bit_set_cursor@lcd:
   629                           	callstack 0
   630                           
   631                           ; 1 bytes @ 0x11
   632   000012                     	ds	1
   633   000013                     ??_lcd_4bit_initialze:
   634   000013                     lcd_4bit_set_cursor@row:
   635                           	callstack 0
   636   000013                     lcd_4bit_send_string_data@str_data:
   637                           	callstack 0
   638                           
   639                           ; 2 bytes @ 0x12
   640   000013                     	ds	1
   641   000014                     lcd_4bit_initialze@l_counter:
   642                           	callstack 0
   643   000014                     lcd_4bit_set_cursor@coulmn:
   644                           	callstack 0
   645                           
   646                           ; 1 bytes @ 0x13
   647   000014                     	ds	1
   648   000015                     ??_lcd_4bit_set_cursor:
   649   000015                     ??_lcd_4bit_send_string_data:
   650   000015                     lcd_4bit_initialze@Ret:
   651                           	callstack 0
   652                           
   653                           ; 1 bytes @ 0x14
   654   000015                     	ds	1
   655   000016                     
   656                           ; 1 bytes @ 0x15
   657   000016                     	ds	1
   658   000017                     lcd_4bit_send_string_data@Ret:
   659                           	callstack 0
   660   000017                     lcd_4bit_set_cursor@Ret:
   661                           	callstack 0
   662                           
   663                           ; 1 bytes @ 0x16
   664   000017                     	ds	1
   665   000018                     lcd_4bit_send_string_data@l_counter:
   666                           	callstack 0
   667                           
   668                           ; 1 bytes @ 0x17
   669   000018                     	ds	1
   670   000019                     ??_Welcom:
   671   000019                     lcd_4bit_send_string_data_pos@lcd:
   672                           	callstack 0
   673                           
   674                           ; 1 bytes @ 0x18
   675   000019                     	ds	1
   676   00001A                     lcd_4bit_send_string_data_pos@row:
   677                           	callstack 0
   678                           
   679                           ; 1 bytes @ 0x19
   680   00001A                     	ds	1
   681   00001B                     lcd_4bit_send_string_data_pos@coulmn:
   682                           	callstack 0
   683   00001B                     Welcom@l_welcom_counter:
   684                           	callstack 0
   685                           
   686                           ; 1 bytes @ 0x1A
   687   00001B                     	ds	1
   688   00001C                     lcd_4bit_send_string_data_pos@str_data:
   689                           	callstack 0
   690                           
   691                           ; 1 bytes @ 0x1B
   692   00001C                     	ds	1
   693   00001D                     lcd_4bit_send_string_data_pos@Ret:
   694                           	callstack 0
   695                           
   696                           ; 1 bytes @ 0x1C
   697   00001D                     	ds	1
   698   00001E                     ?_Set_Password:
   699                           	callstack 0
   700   00001E                     Check_Password@Password:
   701                           	callstack 0
   702                           
   703                           ; 2 bytes @ 0x1D
   704   00001E                     	ds	2
   705   000020                     ??_Set_Password:
   706   000020                     ??_Check_Password:
   707                           
   708                           ; 1 bytes @ 0x1F
   709   000020                     	ds	8
   710   000028                     Set_Password@Return_Value:
   711                           	callstack 0
   712   000028                     Check_Password@Enter_Password:
   713                           	callstack 0
   714                           
   715                           ; 2 bytes @ 0x27
   716   000028                     	ds	2
   717   00002A                     Check_Password@Ret_value:
   718                           	callstack 0
   719   00002A                     Set_Password@Keypad_Value:
   720                           	callstack 0
   721                           
   722                           ; 4 bytes @ 0x29
   723   00002A                     	ds	1
   724   00002B                     Check_Password@Keypad_Value:
   725                           	callstack 0
   726                           
   727                           ; 4 bytes @ 0x2A
   728   00002B                     	ds	3
   729   00002E                     Set_Password@l_Counter:
   730                           	callstack 0
   731                           
   732                           ; 1 bytes @ 0x2D
   733   00002E                     	ds	1
   734   00002F                     Check_Password@l_Counter:
   735                           	callstack 0
   736                           
   737                           ; 1 bytes @ 0x2E
   738   00002F                     	ds	1
   739   000030                     ??_main:
   740                           
   741                           ; 1 bytes @ 0x2F
   742   000030                     	ds	2
   743                           
   744 ;;
   745 ;;Main: autosize = 0, tempsize = 2, incstack = 0, save=0
   746 ;;
   747 ;; *************** function _main *****************
   748 ;; Defined at:
   749 ;;		line 96 in file "main.c"
   750 ;; Parameters:    Size  Location     Type
   751 ;;		None
   752 ;; Auto vars:     Size  Location     Type
   753 ;;		None
   754 ;; Return value:  Size  Location     Type
   755 ;;                  1    wreg      void 
   756 ;; Registers used:
   757 ;;		wreg, fsr0l, fsr0h, fsr1l, fsr1h, fsr2l, fsr2h, status,2, status,0, tblptrl, tblptrh, tblptru, prodl, prodh, cstack
   758 ;; Tracked objects:
   759 ;;		On entry : 0/0
   760 ;;		On exit  : 0/0
   761 ;;		Unchanged: 0/0
   762 ;; Data sizes:     COMRAM   BANK0   BANK1   BANK2   BANK3   BANK4   BANK5   BANK6   BANK7   BANK8   BANK9  BANK10  BANK1
      +1  BANK12  BANK13  BANK14  BANK15
   763 ;;      Params:         0       0       0       0       0       0       0       0       0       0       0       0       
      +0       0       0       0       0
   764 ;;      Locals:         0       0       0       0       0       0       0       0       0       0       0       0       
      +0       0       0       0       0
   765 ;;      Temps:          2       0       0       0       0       0       0       0       0       0       0       0       
      +0       0       0       0       0
   766 ;;      Totals:         2       0       0       0       0       0       0       0       0       0       0       0       
      +0       0       0       0       0
   767 ;;Total ram usage:        2 bytes
   768 ;; Hardware stack levels required when called: 6
   769 ;; This function calls:
   770 ;;		_APP_Init
   771 ;;		_Check_Password
   772 ;;		_DATAEE_ReadByte
   773 ;;		_DATAEE_WriteByte
   774 ;;		_Read_Password_EEPROM
   775 ;;		_SYSTEM_Initialize
   776 ;;		_Set_Password
   777 ;;		_Welcom
   778 ;;		_dc_motor_move_right
   779 ;;		_dc_motor_stop
   780 ;;		_lcd_4bit_send_command
   781 ;;		_lcd_4bit_send_string_data_pos
   782 ;;		_led_off
   783 ;;		_led_on
   784 ;; This function is called by:
   785 ;;		Startup code after reset
   786 ;; This function uses a non-reentrant model
   787 ;;
   788                           
   789                           	psect	text0
   790   00106E                     __ptext0:
   791                           	callstack 0
   792   00106E                     _main:
   793                           	callstack 25
   794   00106E                     
   795                           ;main.c: 98:     DATAEE_WriteByte(0x0000, 0xFF);
   796   00106E  0E00               	movlw	0
   797   001070  6E02               	movwf	(DATAEE_WriteByte@bAdd+1)^0,c
   798   001072  0E00               	movlw	0
   799   001074  6E01               	movwf	DATAEE_WriteByte@bAdd^0,c
   800   001076  0EFF               	movlw	255
   801   001078  6E03               	movwf	DATAEE_WriteByte@bData^0,c
   802   00107A  EC01  F011         	call	_DATAEE_WriteByte	;wreg free
   803   00107E                     
   804                           ;main.c: 100:     SYSTEM_Initialize();
   805   00107E  ECC4  F011         	call	_SYSTEM_Initialize	;wreg free
   806   001082                     
   807                           ;main.c: 101:     APP_Init();
   808   001082  EC79  F011         	call	_APP_Init	;wreg free
   809   001086                     
   810                           ;main.c: 103:     Welcom();
   811   001086  EC2D  F00D         	call	_Welcom	;wreg free
   812   00108A                     
   813                           ;main.c: 105:     Program_Count = DATAEE_ReadByte(0x0000);
   814   00108A  0E00               	movlw	0
   815   00108C  6E02               	movwf	(DATAEE_ReadByte@bAdd+1)^0,c
   816   00108E  0E00               	movlw	0
   817   001090  6E01               	movwf	DATAEE_ReadByte@bAdd^0,c
   818   001092  ECAF  F011         	call	_DATAEE_ReadByte	;wreg free
   819   001096  6E59               	movwf	_Program_Count^0,c
   820   001098                     
   821                           ;main.c: 107:     if (Program_Count == 0xFF)
   822   001098  2859               	incf	_Program_Count^0,w,c
   823   00109A  A4D8               	btfss	status,2,c
   824   00109C  EF52  F008         	goto	u2351
   825   0010A0  EF54  F008         	goto	u2350
   826   0010A4                     u2351:
   827   0010A4  EF6F  F008         	goto	l3495
   828   0010A8                     u2350:
   829   0010A8                     
   830                           ;main.c: 108:     {;main.c: 109:         Password = Set_Password();
   831   0010A8  ECEB  F00A         	call	_Set_Password	;wreg free
   832   0010AC  C01E  F056         	movff	?_Set_Password,_Password
   833   0010B0  C01F  F057         	movff	?_Set_Password+1,_Password+1
   834   0010B4                     
   835                           ;main.c: 111:         DATAEE_WriteByte(0x0120, (uint8)Password);
   836   0010B4  0E01               	movlw	1
   837   0010B6  6E02               	movwf	(DATAEE_WriteByte@bAdd+1)^0,c
   838   0010B8  0E20               	movlw	32
   839   0010BA  6E01               	movwf	DATAEE_WriteByte@bAdd^0,c
   840   0010BC  C056  F003         	movff	_Password,DATAEE_WriteByte@bData
   841   0010C0  EC01  F011         	call	_DATAEE_WriteByte	;wreg free
   842   0010C4                     
   843                           ;main.c: 112:         DATAEE_WriteByte(0x0121, (uint8)( (Password >> 8) &0x0F));
   844   0010C4  0E01               	movlw	1
   845   0010C6  6E02               	movwf	(DATAEE_WriteByte@bAdd+1)^0,c
   846   0010C8  0E21               	movlw	33
   847   0010CA  6E01               	movwf	DATAEE_WriteByte@bAdd^0,c
   848   0010CC  5057               	movf	(_Password+1)^0,w,c
   849   0010CE  0B0F               	andlw	15
   850   0010D0  6E03               	movwf	DATAEE_WriteByte@bData^0,c
   851   0010D2  EC01  F011         	call	_DATAEE_WriteByte	;wreg free
   852   0010D6                     
   853                           ;main.c: 113:         Program_Count = 1;
   854   0010D6  0E01               	movlw	1
   855   0010D8  6E59               	movwf	_Program_Count^0,c
   856                           
   857                           ;main.c: 114:     }
   858   0010DA  EF89  F008         	goto	l3505
   859   0010DE                     l3495:
   860   0010DE  0EFE               	movlw	254
   861   0010E0  1859               	xorwf	_Program_Count^0,w,c
   862   0010E2  A4D8               	btfss	status,2,c
   863   0010E4  EF76  F008         	goto	u2361
   864   0010E8  EF78  F008         	goto	u2360
   865   0010EC                     u2361:
   866   0010EC  EF82  F008         	goto	l3501
   867   0010F0                     u2360:
   868   0010F0                     
   869                           ;main.c: 116:     {;main.c: 117:         Password = Read_Password_EEPROM();
   870   0010F0  EC44  F011         	call	_Read_Password_EEPROM	;wreg free
   871   0010F4  C003  F056         	movff	?_Read_Password_EEPROM,_Password
   872   0010F8  C004  F057         	movff	?_Read_Password_EEPROM+1,_Password+1
   873   0010FC                     
   874                           ;main.c: 119:         Program_Count = 0;
   875   0010FC  0E00               	movlw	0
   876   0010FE  6E59               	movwf	_Program_Count^0,c
   877                           
   878                           ;main.c: 120:     }
   879   001100  EF89  F008         	goto	l3505
   880   001104                     l3501:
   881                           
   882                           ;main.c: 122:     {;main.c: 123:         Password = Read_Password_EEPROM();
   883   001104  EC44  F011         	call	_Read_Password_EEPROM	;wreg free
   884   001108  C003  F056         	movff	?_Read_Password_EEPROM,_Password
   885   00110C  C004  F057         	movff	?_Read_Password_EEPROM+1,_Password+1
   886   001110                     
   887                           ;main.c: 124:         Program_Count++;
   888   001110  2A59               	incf	_Program_Count^0,f,c
   889   001112                     l3505:
   890                           
   891                           ;main.c: 127:     DATAEE_WriteByte(0x0000, Program_Count);
   892   001112  0E00               	movlw	0
   893   001114  6E02               	movwf	(DATAEE_WriteByte@bAdd+1)^0,c
   894   001116  0E00               	movlw	0
   895   001118  6E01               	movwf	DATAEE_WriteByte@bAdd^0,c
   896   00111A  C059  F003         	movff	_Program_Count,DATAEE_WriteByte@bData
   897   00111E  EC01  F011         	call	_DATAEE_WriteByte	;wreg free
   898   001122                     l3507:
   899                           
   900                           ;main.c: 130:     password_check = Check_Password(Password);
   901   001122  C056  F01E         	movff	_Password,Check_Password@Password
   902   001126  C057  F01F         	movff	_Password+1,Check_Password@Password+1
   903   00112A  EC12  F009         	call	_Check_Password	;wreg free
   904   00112E  6E58               	movwf	_password_check^0,c
   905   001130                     l3509:
   906                           
   907                           ;main.c: 133:     {;main.c: 135:         if (password_check == 0x01)
   908   001130  0458               	decf	_password_check^0,w,c
   909   001132  A4D8               	btfss	status,2,c
   910   001134  EF9E  F008         	goto	u2371
   911   001138  EFA0  F008         	goto	u2370
   912   00113C                     u2371:
   913   00113C  EFD0  F008         	goto	l3525
   914   001140                     u2370:
   915   001140                     
   916                           ;main.c: 136:         {;main.c: 137:             ret = lcd_4bit_send_command(&lcd1, 0X01
      +                          );
   917   001140  0E46               	movlw	low _lcd1
   918   001142  6E0F               	movwf	lcd_4bit_send_command@lcd^0,c
   919   001144  0E01               	movlw	1
   920   001146  6E10               	movwf	lcd_4bit_send_command@command^0,c
   921   001148  ECA9  F010         	call	_lcd_4bit_send_command	;wreg free
   922   00114C  6E5A               	movwf	_ret^0,c
   923   00114E                     
   924                           ;main.c: 138:             ret = lcd_4bit_send_string_data_pos(&lcd1, 1, 1, "Correct Pass
      +                          word");
   925   00114E  0E46               	movlw	low _lcd1
   926   001150  6E19               	movwf	lcd_4bit_send_string_data_pos@lcd^0,c
   927   001152  0E01               	movlw	1
   928   001154  6E1A               	movwf	lcd_4bit_send_string_data_pos@row^0,c
   929   001156  0E01               	movlw	1
   930   001158  6E1B               	movwf	lcd_4bit_send_string_data_pos@coulmn^0,c
   931   00115A  0E27               	movlw	low (STR_7+2)
   932   00115C  6E1C               	movwf	lcd_4bit_send_string_data_pos@str_data^0,c
   933   00115E  ECD8  F010         	call	_lcd_4bit_send_string_data_pos	;wreg free
   934   001162  6E5A               	movwf	_ret^0,c
   935   001164                     
   936                           ;main.c: 139:             ret = led_on(&led_1);
   937   001164  0E5B               	movlw	low _led_1
   938   001166  6E09               	movwf	led_on@led^0,c
   939   001168  EC44  F00F         	call	_led_on	;wreg free
   940   00116C  6E5A               	movwf	_ret^0,c
   941   00116E                     
   942                           ;main.c: 140:             ret = dc_motor_move_right(&motor_1);
   943   00116E  0E4C               	movlw	low _motor_1
   944   001170  6E09               	movwf	dc_motor_move_right@obj^0,c
   945   001172  ECC8  F00C         	call	_dc_motor_move_right	;wreg free
   946   001176  6E5A               	movwf	_ret^0,c
   947   001178                     
   948                           ;main.c: 141:             _delay((unsigned long)((5000)*(8000000/4000.0)));
   949   001178  0E33               	movlw	51
   950   00117A  6E31               	movwf	(??_main+1)^0,c
   951   00117C  0EBB               	movlw	187
   952   00117E  6E30               	movwf	??_main^0,c
   953   001180  0EE0               	movlw	224
   954   001182                     u2427:
   955   001182  2EE8               	decfsz	wreg,f,c
   956   001184  D7FE               	bra	u2427
   957   001186  2E30               	decfsz	??_main^0,f,c
   958   001188  D7FC               	bra	u2427
   959   00118A  2E31               	decfsz	(??_main+1)^0,f,c
   960   00118C  D7FA               	bra	u2427
   961   00118E                     
   962                           ;main.c: 142:             ret = dc_motor_stop(&motor_1);
   963   00118E  0E4C               	movlw	low _motor_1
   964   001190  6E09               	movwf	dc_motor_stop@obj^0,c
   965   001192  EC63  F00C         	call	_dc_motor_stop	;wreg free
   966   001196  6E5A               	movwf	_ret^0,c
   967   001198                     
   968                           ;main.c: 143:             password_check = 0x02;
   969   001198  0E02               	movlw	2
   970   00119A  6E58               	movwf	_password_check^0,c
   971                           
   972                           ;main.c: 144:         }
   973   00119C  EF98  F008         	goto	l3509
   974   0011A0                     l3525:
   975   0011A0  5058               	movf	_password_check^0,w,c
   976   0011A2  A4D8               	btfss	status,2,c
   977   0011A4  EFD6  F008         	goto	u2381
   978   0011A8  EFD8  F008         	goto	u2380
   979   0011AC                     u2381:
   980   0011AC  EF0E  F009         	goto	l564
   981   0011B0                     u2380:
   982   0011B0                     
   983                           ;main.c: 146:         {;main.c: 147:             ret = lcd_4bit_send_command(&lcd1, 0X01
      +                          );
   984   0011B0  0E46               	movlw	low _lcd1
   985   0011B2  6E0F               	movwf	lcd_4bit_send_command@lcd^0,c
   986   0011B4  0E01               	movlw	1
   987   0011B6  6E10               	movwf	lcd_4bit_send_command@command^0,c
   988   0011B8  ECA9  F010         	call	_lcd_4bit_send_command	;wreg free
   989   0011BC  6E5A               	movwf	_ret^0,c
   990   0011BE                     
   991                           ;main.c: 148:             ret = lcd_4bit_send_string_data_pos(&lcd1, 1, 6, "InCorrect Pa
      +                          ssword");
   992   0011BE  0E46               	movlw	low _lcd1
   993   0011C0  6E19               	movwf	lcd_4bit_send_string_data_pos@lcd^0,c
   994   0011C2  0E01               	movlw	1
   995   0011C4  6E1A               	movwf	lcd_4bit_send_string_data_pos@row^0,c
   996   0011C6  0E06               	movlw	6
   997   0011C8  6E1B               	movwf	lcd_4bit_send_string_data_pos@coulmn^0,c
   998   0011CA  0E25               	movlw	low STR_7
   999   0011CC  6E1C               	movwf	lcd_4bit_send_string_data_pos@str_data^0,c
  1000   0011CE  ECD8  F010         	call	_lcd_4bit_send_string_data_pos	;wreg free
  1001   0011D2  6E5A               	movwf	_ret^0,c
  1002   0011D4                     
  1003                           ;main.c: 149:             ret = lcd_4bit_send_string_data_pos(&lcd1, 2, 6, "Try again");
  1004   0011D4  0E46               	movlw	low _lcd1
  1005   0011D6  6E19               	movwf	lcd_4bit_send_string_data_pos@lcd^0,c
  1006   0011D8  0E02               	movlw	2
  1007   0011DA  6E1A               	movwf	lcd_4bit_send_string_data_pos@row^0,c
  1008   0011DC  0E06               	movlw	6
  1009   0011DE  6E1B               	movwf	lcd_4bit_send_string_data_pos@coulmn^0,c
  1010   0011E0  0E4A               	movlw	low STR_8
  1011   0011E2  6E1C               	movwf	lcd_4bit_send_string_data_pos@str_data^0,c
  1012   0011E4  ECD8  F010         	call	_lcd_4bit_send_string_data_pos	;wreg free
  1013   0011E8  6E5A               	movwf	_ret^0,c
  1014                           
  1015                           ;main.c: 150:             ret = led_off(&led_1);
  1016   0011EA  0E5B               	movlw	low _led_1
  1017   0011EC  6E09               	movwf	led_off@led^0,c
  1018   0011EE  EC7B  F00F         	call	_led_off	;wreg free
  1019   0011F2  6E5A               	movwf	_ret^0,c
  1020                           
  1021                           ;main.c: 151:             ret = dc_motor_stop(&motor_1);
  1022   0011F4  0E4C               	movlw	low _motor_1
  1023   0011F6  6E09               	movwf	dc_motor_stop@obj^0,c
  1024   0011F8  EC63  F00C         	call	_dc_motor_stop	;wreg free
  1025   0011FC  6E5A               	movwf	_ret^0,c
  1026   0011FE                     
  1027                           ;main.c: 152:             _delay((unsigned long)((2000)*(8000000/4000.0)));
  1028   0011FE  0E15               	movlw	21
  1029   001200  6E31               	movwf	(??_main+1)^0,c
  1030   001202  0E4B               	movlw	75
  1031   001204  6E30               	movwf	??_main^0,c
  1032   001206  0EBE               	movlw	190
  1033   001208                     u2437:
  1034   001208  2EE8               	decfsz	wreg,f,c
  1035   00120A  D7FE               	bra	u2437
  1036   00120C  2E30               	decfsz	??_main^0,f,c
  1037   00120E  D7FC               	bra	u2437
  1038   001210  2E31               	decfsz	(??_main+1)^0,f,c
  1039   001212  D7FA               	bra	u2437
  1040   001214  F000 F000          	nop2	
  1041   001218  EF91  F008         	goto	l3507
  1042   00121C                     l564:
  1043   00121C  EF98  F008         	goto	l3509
  1044   001220  EF00  F000         	goto	start
  1045   001224                     __end_of_main:
  1046                           	callstack 0
  1047                           
  1048 ;; *************** function _led_on *****************
  1049 ;; Defined at:
  1050 ;;		line 51 in file "ECU/LED/ecu_led.c"
  1051 ;; Parameters:    Size  Location     Type
  1052 ;;  led             1    8[COMRAM] PTR const struct .
  1053 ;;		 -> led_1(1), 
  1054 ;; Auto vars:     Size  Location     Type
  1055 ;;  pin_obj         1   11[COMRAM] struct .
  1056 ;;  ret             1   10[COMRAM] unsigned char 
  1057 ;; Return value:  Size  Location     Type
  1058 ;;                  1    wreg      unsigned char 
  1059 ;; Registers used:
  1060 ;;		wreg, fsr2l, fsr2h, status,2, status,0, prodl, prodh, cstack
  1061 ;; Tracked objects:
  1062 ;;		On entry : 0/0
  1063 ;;		On exit  : 0/0
  1064 ;;		Unchanged: 0/0
  1065 ;; Data sizes:     COMRAM   BANK0   BANK1   BANK2   BANK3   BANK4   BANK5   BANK6   BANK7   BANK8   BANK9  BANK10  BANK1
      +1  BANK12  BANK13  BANK14  BANK15
  1066 ;;      Params:         1       0       0       0       0       0       0       0       0       0       0       0       
      +0       0       0       0       0
  1067 ;;      Locals:         2       0       0       0       0       0       0       0       0       0       0       0       
      +0       0       0       0       0
  1068 ;;      Temps:          1       0       0       0       0       0       0       0       0       0       0       0       
      +0       0       0       0       0
  1069 ;;      Totals:         4       0       0       0       0       0       0       0       0       0       0       0       
      +0       0       0       0       0
  1070 ;;Total ram usage:        4 bytes
  1071 ;; Hardware stack levels used: 1
  1072 ;; Hardware stack levels required when called: 1
  1073 ;; This function calls:
  1074 ;;		_gpio_pin_write_logic
  1075 ;; This function is called by:
  1076 ;;		_main
  1077 ;; This function uses a non-reentrant model
  1078 ;;
  1079                           
  1080                           	psect	text1
  1081   001E88                     __ptext1:
  1082                           	callstack 0
  1083   001E88                     _led_on:
  1084                           	callstack 29
  1085   001E88                     
  1086                           ;ECU/LED/ecu_led.c: 56:     if(((void*)0) == led)
  1087   001E88  5009               	movf	led_on@led^0,w,c
  1088   001E8A  A4D8               	btfss	status,2,c
  1089   001E8C  EF4A  F00F         	goto	u1971
  1090   001E90  EF4C  F00F         	goto	u1970
  1091   001E94                     u1971:
  1092   001E94  EF50  F00F         	goto	l3033
  1093   001E98                     u1970:
  1094   001E98                     
  1095                           ;ECU/LED/ecu_led.c: 57:     {;ECU/LED/ecu_led.c: 58:         ret = (Std_ReturnType)0X00;
  1096   001E98  0E00               	movlw	0
  1097   001E9A  6E0B               	movwf	led_on@ret^0,c
  1098                           
  1099                           ;ECU/LED/ecu_led.c: 59:     }
  1100   001E9C  EF79  F00F         	goto	l3041
  1101   001EA0                     l3033:
  1102                           
  1103                           ;ECU/LED/ecu_led.c: 61:     {;ECU/LED/ecu_led.c: 62:         pin_config_t pin_obj;;ECU/L
      +                          ED/ecu_led.c: 63:         pin_obj.Port = led->port_name;
  1104   001EA0  5009               	movf	led_on@led^0,w,c
  1105   001EA2  6ED9               	movwf	fsr2l,c
  1106   001EA4  6ADA               	clrf	fsr2h,c
  1107   001EA6  50DF               	movf	223,w,c
  1108   001EA8  0B0F               	andlw	15
  1109   001EAA  6E0A               	movwf	??_led_on^0,c
  1110   001EAC  460A               	rlncf	??_led_on^0,f,c
  1111   001EAE  460A               	rlncf	??_led_on^0,f,c
  1112   001EB0  460A               	rlncf	??_led_on^0,f,c
  1113   001EB2  500C               	movf	led_on@pin_obj^0,w,c
  1114   001EB4  180A               	xorwf	??_led_on^0,w,c
  1115   001EB6  0BC7               	andlw	-57
  1116   001EB8  180A               	xorwf	??_led_on^0,w,c
  1117   001EBA  6E0C               	movwf	led_on@pin_obj^0,c
  1118                           
  1119                           ;ECU/LED/ecu_led.c: 64:         pin_obj.Pin = led->pin_name;
  1120   001EBC  5009               	movf	led_on@led^0,w,c
  1121   001EBE  6ED9               	movwf	fsr2l,c
  1122   001EC0  6ADA               	clrf	fsr2h,c
  1123   001EC2  38DF               	swapf	223,w,c
  1124   001EC4  0B07               	andlw	7
  1125   001EC6  6E0A               	movwf	??_led_on^0,c
  1126   001EC8  500C               	movf	led_on@pin_obj^0,w,c
  1127   001ECA  180A               	xorwf	??_led_on^0,w,c
  1128   001ECC  0BF8               	andlw	-8
  1129   001ECE  180A               	xorwf	??_led_on^0,w,c
  1130   001ED0  6E0C               	movwf	led_on@pin_obj^0,c
  1131   001ED2                     
  1132                           ;ECU/LED/ecu_led.c: 65:         pin_obj.Logic = led->led_state;
  1133   001ED2  5009               	movf	led_on@led^0,w,c
  1134   001ED4  6ED9               	movwf	fsr2l,c
  1135   001ED6  6ADA               	clrf	fsr2h,c
  1136   001ED8  AEDF               	btfss	indf2,7,c
  1137   001EDA  D002               	bra	u1985
  1138   001EDC  8C0C               	bsf	led_on@pin_obj^0,6,c
  1139   001EDE  D001               	bra	u1987
  1140   001EE0                     u1985:
  1141   001EE0  9C0C               	bcf	led_on@pin_obj^0,6,c
  1142   001EE2                     u1987:
  1143   001EE2                     
  1144                           ;ECU/LED/ecu_led.c: 66:         pin_obj.Direction = GPIO_OUTPUT;
  1145   001EE2  9E0C               	bcf	led_on@pin_obj^0,7,c
  1146   001EE4                     
  1147                           ;ECU/LED/ecu_led.c: 68:         ret = gpio_pin_write_logic(&pin_obj,GPIO_HIGH);
  1148   001EE4  0E0C               	movlw	low led_on@pin_obj
  1149   001EE6  6E01               	movwf	gpio_pin_write_logic@pin_config^0,c
  1150   001EE8  0E01               	movlw	1
  1151   001EEA  6E02               	movwf	gpio_pin_write_logic@logic^0,c
  1152   001EEC  EC5C  F00A         	call	_gpio_pin_write_logic	;wreg free
  1153   001EF0  6E0B               	movwf	led_on@ret^0,c
  1154   001EF2                     l3041:
  1155                           
  1156                           ;ECU/LED/ecu_led.c: 73:     return ret;
  1157   001EF2  500B               	movf	led_on@ret^0,w,c
  1158   001EF4  0012               	return		;funcret
  1159   001EF6                     __end_of_led_on:
  1160                           	callstack 0
  1161                           
  1162 ;; *************** function _led_off *****************
  1163 ;; Defined at:
  1164 ;;		line 84 in file "ECU/LED/ecu_led.c"
  1165 ;; Parameters:    Size  Location     Type
  1166 ;;  led             1    8[COMRAM] PTR const struct .
  1167 ;;		 -> led_1(1), 
  1168 ;; Auto vars:     Size  Location     Type
  1169 ;;  pin_obj         1   11[COMRAM] struct .
  1170 ;;  ret             1   10[COMRAM] unsigned char 
  1171 ;; Return value:  Size  Location     Type
  1172 ;;                  1    wreg      unsigned char 
  1173 ;; Registers used:
  1174 ;;		wreg, fsr2l, fsr2h, status,2, status,0, prodl, prodh, cstack
  1175 ;; Tracked objects:
  1176 ;;		On entry : 0/0
  1177 ;;		On exit  : 0/0
  1178 ;;		Unchanged: 0/0
  1179 ;; Data sizes:     COMRAM   BANK0   BANK1   BANK2   BANK3   BANK4   BANK5   BANK6   BANK7   BANK8   BANK9  BANK10  BANK1
      +1  BANK12  BANK13  BANK14  BANK15
  1180 ;;      Params:         1       0       0       0       0       0       0       0       0       0       0       0       
      +0       0       0       0       0
  1181 ;;      Locals:         2       0       0       0       0       0       0       0       0       0       0       0       
      +0       0       0       0       0
  1182 ;;      Temps:          1       0       0       0       0       0       0       0       0       0       0       0       
      +0       0       0       0       0
  1183 ;;      Totals:         4       0       0       0       0       0       0       0       0       0       0       0       
      +0       0       0       0       0
  1184 ;;Total ram usage:        4 bytes
  1185 ;; Hardware stack levels used: 1
  1186 ;; Hardware stack levels required when called: 1
  1187 ;; This function calls:
  1188 ;;		_gpio_pin_write_logic
  1189 ;; This function is called by:
  1190 ;;		_main
  1191 ;; This function uses a non-reentrant model
  1192 ;;
  1193                           
  1194                           	psect	text2
  1195   001EF6                     __ptext2:
  1196                           	callstack 0
  1197   001EF6                     _led_off:
  1198                           	callstack 29
  1199   001EF6                     
  1200                           ;ECU/LED/ecu_led.c: 88:     if(((void*)0) == led)
  1201   001EF6  5009               	movf	led_off@led^0,w,c
  1202   001EF8  A4D8               	btfss	status,2,c
  1203   001EFA  EF81  F00F         	goto	u1991
  1204   001EFE  EF83  F00F         	goto	u1990
  1205   001F02                     u1991:
  1206   001F02  EF87  F00F         	goto	l3049
  1207   001F06                     u1990:
  1208   001F06                     
  1209                           ;ECU/LED/ecu_led.c: 89:     {;ECU/LED/ecu_led.c: 90:         ret = (Std_ReturnType)0X00;
  1210   001F06  0E00               	movlw	0
  1211   001F08  6E0B               	movwf	led_off@ret^0,c
  1212                           
  1213                           ;ECU/LED/ecu_led.c: 91:     }
  1214   001F0A  EFB0  F00F         	goto	l3057
  1215   001F0E                     l3049:
  1216                           
  1217                           ;ECU/LED/ecu_led.c: 93:     {;ECU/LED/ecu_led.c: 94:         pin_config_t pin_obj;;ECU/L
      +                          ED/ecu_led.c: 95:         pin_obj.Port = led->port_name;
  1218   001F0E  5009               	movf	led_off@led^0,w,c
  1219   001F10  6ED9               	movwf	fsr2l,c
  1220   001F12  6ADA               	clrf	fsr2h,c
  1221   001F14  50DF               	movf	223,w,c
  1222   001F16  0B0F               	andlw	15
  1223   001F18  6E0A               	movwf	??_led_off^0,c
  1224   001F1A  460A               	rlncf	??_led_off^0,f,c
  1225   001F1C  460A               	rlncf	??_led_off^0,f,c
  1226   001F1E  460A               	rlncf	??_led_off^0,f,c
  1227   001F20  500C               	movf	led_off@pin_obj^0,w,c
  1228   001F22  180A               	xorwf	??_led_off^0,w,c
  1229   001F24  0BC7               	andlw	-57
  1230   001F26  180A               	xorwf	??_led_off^0,w,c
  1231   001F28  6E0C               	movwf	led_off@pin_obj^0,c
  1232                           
  1233                           ;ECU/LED/ecu_led.c: 96:         pin_obj.Pin = led->pin_name;
  1234   001F2A  5009               	movf	led_off@led^0,w,c
  1235   001F2C  6ED9               	movwf	fsr2l,c
  1236   001F2E  6ADA               	clrf	fsr2h,c
  1237   001F30  38DF               	swapf	223,w,c
  1238   001F32  0B07               	andlw	7
  1239   001F34  6E0A               	movwf	??_led_off^0,c
  1240   001F36  500C               	movf	led_off@pin_obj^0,w,c
  1241   001F38  180A               	xorwf	??_led_off^0,w,c
  1242   001F3A  0BF8               	andlw	-8
  1243   001F3C  180A               	xorwf	??_led_off^0,w,c
  1244   001F3E  6E0C               	movwf	led_off@pin_obj^0,c
  1245   001F40                     
  1246                           ;ECU/LED/ecu_led.c: 97:         pin_obj.Logic = led->led_state;
  1247   001F40  5009               	movf	led_off@led^0,w,c
  1248   001F42  6ED9               	movwf	fsr2l,c
  1249   001F44  6ADA               	clrf	fsr2h,c
  1250   001F46  AEDF               	btfss	indf2,7,c
  1251   001F48  D002               	bra	u2005
  1252   001F4A  8C0C               	bsf	led_off@pin_obj^0,6,c
  1253   001F4C  D001               	bra	u2007
  1254   001F4E                     u2005:
  1255   001F4E  9C0C               	bcf	led_off@pin_obj^0,6,c
  1256   001F50                     u2007:
  1257   001F50                     
  1258                           ;ECU/LED/ecu_led.c: 98:         pin_obj.Direction = GPIO_OUTPUT;
  1259   001F50  9E0C               	bcf	led_off@pin_obj^0,7,c
  1260   001F52                     
  1261                           ;ECU/LED/ecu_led.c: 100:         ret = gpio_pin_write_logic(&pin_obj, GPIO_LOW);
  1262   001F52  0E0C               	movlw	low led_off@pin_obj
  1263   001F54  6E01               	movwf	gpio_pin_write_logic@pin_config^0,c
  1264   001F56  0E00               	movlw	0
  1265   001F58  6E02               	movwf	gpio_pin_write_logic@logic^0,c
  1266   001F5A  EC5C  F00A         	call	_gpio_pin_write_logic	;wreg free
  1267   001F5E  6E0B               	movwf	led_off@ret^0,c
  1268   001F60                     l3057:
  1269                           
  1270                           ;ECU/LED/ecu_led.c: 103:     return ret;
  1271   001F60  500B               	movf	led_off@ret^0,w,c
  1272   001F62  0012               	return		;funcret
  1273   001F64                     __end_of_led_off:
  1274                           	callstack 0
  1275                           
  1276 ;; *************** function _dc_motor_stop *****************
  1277 ;; Defined at:
  1278 ;;		line 139 in file "ECU/DC_MOTOR/ecu_dc_motor.c"
  1279 ;; Parameters:    Size  Location     Type
  1280 ;;  obj             1    8[COMRAM] PTR const struct .
  1281 ;;		 -> motor_1(2), 
  1282 ;; Auto vars:     Size  Location     Type
  1283 ;;  pin_2           1   12[COMRAM] struct .
  1284 ;;  pin_1           1   11[COMRAM] struct .
  1285 ;;  ret             1   10[COMRAM] unsigned char 
  1286 ;; Return value:  Size  Location     Type
  1287 ;;                  1    wreg      unsigned char 
  1288 ;; Registers used:
  1289 ;;		wreg, fsr2l, fsr2h, status,2, status,0, prodl, prodh, cstack
  1290 ;; Tracked objects:
  1291 ;;		On entry : 0/0
  1292 ;;		On exit  : 0/0
  1293 ;;		Unchanged: 0/0
  1294 ;; Data sizes:     COMRAM   BANK0   BANK1   BANK2   BANK3   BANK4   BANK5   BANK6   BANK7   BANK8   BANK9  BANK10  BANK1
      +1  BANK12  BANK13  BANK14  BANK15
  1295 ;;      Params:         1       0       0       0       0       0       0       0       0       0       0       0       
      +0       0       0       0       0
  1296 ;;      Locals:         3       0       0       0       0       0       0       0       0       0       0       0       
      +0       0       0       0       0
  1297 ;;      Temps:          1       0       0       0       0       0       0       0       0       0       0       0       
      +0       0       0       0       0
  1298 ;;      Totals:         5       0       0       0       0       0       0       0       0       0       0       0       
      +0       0       0       0       0
  1299 ;;Total ram usage:        5 bytes
  1300 ;; Hardware stack levels used: 1
  1301 ;; Hardware stack levels required when called: 1
  1302 ;; This function calls:
  1303 ;;		_gpio_pin_write_logic
  1304 ;; This function is called by:
  1305 ;;		_main
  1306 ;; This function uses a non-reentrant model
  1307 ;;
  1308                           
  1309                           	psect	text3
  1310   0018C6                     __ptext3:
  1311                           	callstack 0
  1312   0018C6                     _dc_motor_stop:
  1313                           	callstack 29
  1314   0018C6                     
  1315                           ;ECU/DC_MOTOR/ecu_dc_motor.c: 143:     if(((void*)0) == obj)
  1316   0018C6  5009               	movf	dc_motor_stop@obj^0,w,c
  1317   0018C8  A4D8               	btfss	status,2,c
  1318   0018CA  EF69  F00C         	goto	u2131
  1319   0018CE  EF6B  F00C         	goto	u2130
  1320   0018D2                     u2131:
  1321   0018D2  EF6F  F00C         	goto	l3221
  1322   0018D6                     u2130:
  1323   0018D6                     
  1324                           ;ECU/DC_MOTOR/ecu_dc_motor.c: 144:     {;ECU/DC_MOTOR/ecu_dc_motor.c: 145:         ret =
      +                           (Std_ReturnType)0X00;
  1325   0018D6  0E00               	movlw	0
  1326   0018D8  6E0B               	movwf	dc_motor_stop@ret^0,c
  1327                           
  1328                           ;ECU/DC_MOTOR/ecu_dc_motor.c: 146:     }
  1329   0018DA  EFC6  F00C         	goto	l3239
  1330   0018DE                     l3221:
  1331                           
  1332                           ;ECU/DC_MOTOR/ecu_dc_motor.c: 149:     {;ECU/DC_MOTOR/ecu_dc_motor.c: 150:         pin_c
      +                          onfig_t pin_1;;ECU/DC_MOTOR/ecu_dc_motor.c: 151:         pin_1.Pin = obj->dc_motor[0].dc
      +                          _motor_pin;
  1333   0018DE  5009               	movf	dc_motor_stop@obj^0,w,c
  1334   0018E0  6ED9               	movwf	fsr2l,c
  1335   0018E2  6ADA               	clrf	fsr2h,c
  1336   0018E4  38DF               	swapf	223,w,c
  1337   0018E6  0B07               	andlw	7
  1338   0018E8  6E0A               	movwf	??_dc_motor_stop^0,c
  1339   0018EA  500C               	movf	dc_motor_stop@pin_1^0,w,c
  1340   0018EC  180A               	xorwf	??_dc_motor_stop^0,w,c
  1341   0018EE  0BF8               	andlw	-8
  1342   0018F0  180A               	xorwf	??_dc_motor_stop^0,w,c
  1343   0018F2  6E0C               	movwf	dc_motor_stop@pin_1^0,c
  1344                           
  1345                           ;ECU/DC_MOTOR/ecu_dc_motor.c: 152:         pin_1.Port = obj->dc_motor[0].dc_motor_port;
  1346   0018F4  5009               	movf	dc_motor_stop@obj^0,w,c
  1347   0018F6  6ED9               	movwf	fsr2l,c
  1348   0018F8  6ADA               	clrf	fsr2h,c
  1349   0018FA  50DF               	movf	223,w,c
  1350   0018FC  0B0F               	andlw	15
  1351   0018FE  6E0A               	movwf	??_dc_motor_stop^0,c
  1352   001900  460A               	rlncf	??_dc_motor_stop^0,f,c
  1353   001902  460A               	rlncf	??_dc_motor_stop^0,f,c
  1354   001904  460A               	rlncf	??_dc_motor_stop^0,f,c
  1355   001906  500C               	movf	dc_motor_stop@pin_1^0,w,c
  1356   001908  180A               	xorwf	??_dc_motor_stop^0,w,c
  1357   00190A  0BC7               	andlw	-57
  1358   00190C  180A               	xorwf	??_dc_motor_stop^0,w,c
  1359   00190E  6E0C               	movwf	dc_motor_stop@pin_1^0,c
  1360   001910                     
  1361                           ;ECU/DC_MOTOR/ecu_dc_motor.c: 153:         pin_1.Direction = GPIO_OUTPUT;
  1362   001910  9E0C               	bcf	dc_motor_stop@pin_1^0,7,c
  1363   001912                     
  1364                           ;ECU/DC_MOTOR/ecu_dc_motor.c: 154:         pin_1.Logic = obj->dc_motor[0].motor_status;
  1365   001912  5009               	movf	dc_motor_stop@obj^0,w,c
  1366   001914  6ED9               	movwf	fsr2l,c
  1367   001916  6ADA               	clrf	fsr2h,c
  1368   001918  AEDF               	btfss	indf2,7,c
  1369   00191A  D002               	bra	u2145
  1370   00191C  8C0C               	bsf	dc_motor_stop@pin_1^0,6,c
  1371   00191E  D001               	bra	u2147
  1372   001920                     u2145:
  1373   001920  9C0C               	bcf	dc_motor_stop@pin_1^0,6,c
  1374   001922                     u2147:
  1375   001922                     
  1376                           ;ECU/DC_MOTOR/ecu_dc_motor.c: 156:         pin_config_t pin_2;;ECU/DC_MOTOR/ecu_dc_motor
      +                          .c: 157:         pin_2.Pin = obj->dc_motor[1].dc_motor_pin;
  1377   001922  5009               	movf	dc_motor_stop@obj^0,w,c
  1378   001924  6ED9               	movwf	fsr2l,c
  1379   001926  6ADA               	clrf	fsr2h,c
  1380   001928  0E01               	movlw	1
  1381   00192A  26D9               	addwf	fsr2l,f,c
  1382   00192C  38DF               	swapf	223,w,c
  1383   00192E  0B07               	andlw	7
  1384   001930  6E0A               	movwf	??_dc_motor_stop^0,c
  1385   001932  500D               	movf	dc_motor_stop@pin_2^0,w,c
  1386   001934  180A               	xorwf	??_dc_motor_stop^0,w,c
  1387   001936  0BF8               	andlw	-8
  1388   001938  180A               	xorwf	??_dc_motor_stop^0,w,c
  1389   00193A  6E0D               	movwf	dc_motor_stop@pin_2^0,c
  1390   00193C                     
  1391                           ;ECU/DC_MOTOR/ecu_dc_motor.c: 158:         pin_2.Port = obj->dc_motor[1].dc_motor_port;
  1392   00193C  5009               	movf	dc_motor_stop@obj^0,w,c
  1393   00193E  6ED9               	movwf	fsr2l,c
  1394   001940  6ADA               	clrf	fsr2h,c
  1395   001942  0E01               	movlw	1
  1396   001944  26D9               	addwf	fsr2l,f,c
  1397   001946  50DF               	movf	223,w,c
  1398   001948  0B0F               	andlw	15
  1399   00194A  6E0A               	movwf	??_dc_motor_stop^0,c
  1400   00194C  460A               	rlncf	??_dc_motor_stop^0,f,c
  1401   00194E  460A               	rlncf	??_dc_motor_stop^0,f,c
  1402   001950  460A               	rlncf	??_dc_motor_stop^0,f,c
  1403   001952  500D               	movf	dc_motor_stop@pin_2^0,w,c
  1404   001954  180A               	xorwf	??_dc_motor_stop^0,w,c
  1405   001956  0BC7               	andlw	-57
  1406   001958  180A               	xorwf	??_dc_motor_stop^0,w,c
  1407   00195A  6E0D               	movwf	dc_motor_stop@pin_2^0,c
  1408   00195C                     
  1409                           ;ECU/DC_MOTOR/ecu_dc_motor.c: 159:         pin_2.Direction = GPIO_OUTPUT;
  1410   00195C  9E0D               	bcf	dc_motor_stop@pin_2^0,7,c
  1411   00195E                     
  1412                           ;ECU/DC_MOTOR/ecu_dc_motor.c: 160:         pin_2.Logic = obj->dc_motor[1].motor_status;
  1413   00195E  5009               	movf	dc_motor_stop@obj^0,w,c
  1414   001960  6ED9               	movwf	fsr2l,c
  1415   001962  6ADA               	clrf	fsr2h,c
  1416   001964  0E01               	movlw	1
  1417   001966  26D9               	addwf	fsr2l,f,c
  1418   001968  AEDF               	btfss	indf2,7,c
  1419   00196A  D002               	bra	u2155
  1420   00196C  8C0D               	bsf	dc_motor_stop@pin_2^0,6,c
  1421   00196E  D001               	bra	u2157
  1422   001970                     u2155:
  1423   001970  9C0D               	bcf	dc_motor_stop@pin_2^0,6,c
  1424   001972                     u2157:
  1425   001972  0E0C               	movlw	low dc_motor_stop@pin_1
  1426   001974  6E01               	movwf	gpio_pin_write_logic@pin_config^0,c
  1427   001976  0E00               	movlw	0
  1428   001978  6E02               	movwf	gpio_pin_write_logic@logic^0,c
  1429   00197A  EC5C  F00A         	call	_gpio_pin_write_logic	;wreg free
  1430   00197E                     
  1431                           ;ECU/DC_MOTOR/ecu_dc_motor.c: 163:         ret = gpio_pin_write_logic(&pin_2, GPIO_LOW);
  1432   00197E  0E0D               	movlw	low dc_motor_stop@pin_2
  1433   001980  6E01               	movwf	gpio_pin_write_logic@pin_config^0,c
  1434   001982  0E00               	movlw	0
  1435   001984  6E02               	movwf	gpio_pin_write_logic@logic^0,c
  1436   001986  EC5C  F00A         	call	_gpio_pin_write_logic	;wreg free
  1437   00198A  6E0B               	movwf	dc_motor_stop@ret^0,c
  1438   00198C                     l3239:
  1439                           
  1440                           ;ECU/DC_MOTOR/ecu_dc_motor.c: 166:     return ret;
  1441   00198C  500B               	movf	dc_motor_stop@ret^0,w,c
  1442   00198E  0012               	return		;funcret
  1443   001990                     __end_of_dc_motor_stop:
  1444                           	callstack 0
  1445                           
  1446 ;; *************** function _dc_motor_move_right *****************
  1447 ;; Defined at:
  1448 ;;		line 63 in file "ECU/DC_MOTOR/ecu_dc_motor.c"
  1449 ;; Parameters:    Size  Location     Type
  1450 ;;  obj             1    8[COMRAM] PTR const struct .
  1451 ;;		 -> motor_1(2), 
  1452 ;; Auto vars:     Size  Location     Type
  1453 ;;  pin_2           1   12[COMRAM] struct .
  1454 ;;  pin_1           1   11[COMRAM] struct .
  1455 ;;  ret             1   10[COMRAM] unsigned char 
  1456 ;; Return value:  Size  Location     Type
  1457 ;;                  1    wreg      unsigned char 
  1458 ;; Registers used:
  1459 ;;		wreg, fsr2l, fsr2h, status,2, status,0, prodl, prodh, cstack
  1460 ;; Tracked objects:
  1461 ;;		On entry : 0/0
  1462 ;;		On exit  : 0/0
  1463 ;;		Unchanged: 0/0
  1464 ;; Data sizes:     COMRAM   BANK0   BANK1   BANK2   BANK3   BANK4   BANK5   BANK6   BANK7   BANK8   BANK9  BANK10  BANK1
      +1  BANK12  BANK13  BANK14  BANK15
  1465 ;;      Params:         1       0       0       0       0       0       0       0       0       0       0       0       
      +0       0       0       0       0
  1466 ;;      Locals:         3       0       0       0       0       0       0       0       0       0       0       0       
      +0       0       0       0       0
  1467 ;;      Temps:          1       0       0       0       0       0       0       0       0       0       0       0       
      +0       0       0       0       0
  1468 ;;      Totals:         5       0       0       0       0       0       0       0       0       0       0       0       
      +0       0       0       0       0
  1469 ;;Total ram usage:        5 bytes
  1470 ;; Hardware stack levels used: 1
  1471 ;; Hardware stack levels required when called: 1
  1472 ;; This function calls:
  1473 ;;		_gpio_pin_write_logic
  1474 ;; This function is called by:
  1475 ;;		_main
  1476 ;; This function uses a non-reentrant model
  1477 ;;
  1478                           
  1479                           	psect	text4
  1480   001990                     __ptext4:
  1481                           	callstack 0
  1482   001990                     _dc_motor_move_right:
  1483                           	callstack 29
  1484   001990                     
  1485                           ;ECU/DC_MOTOR/ecu_dc_motor.c: 67:     if(((void*)0) == obj)
  1486   001990  5009               	movf	dc_motor_move_right@obj^0,w,c
  1487   001992  A4D8               	btfss	status,2,c
  1488   001994  EFCE  F00C         	goto	u2101
  1489   001998  EFD0  F00C         	goto	u2100
  1490   00199C                     u2101:
  1491   00199C  EFD4  F00C         	goto	l3195
  1492   0019A0                     u2100:
  1493   0019A0                     
  1494                           ;ECU/DC_MOTOR/ecu_dc_motor.c: 68:     {;ECU/DC_MOTOR/ecu_dc_motor.c: 69:         ret = (
      +                          Std_ReturnType)0X00;
  1495   0019A0  0E00               	movlw	0
  1496   0019A2  6E0B               	movwf	dc_motor_move_right@ret^0,c
  1497                           
  1498                           ;ECU/DC_MOTOR/ecu_dc_motor.c: 70:     }
  1499   0019A4  EF2B  F00D         	goto	l3213
  1500   0019A8                     l3195:
  1501                           
  1502                           ;ECU/DC_MOTOR/ecu_dc_motor.c: 73:     {;ECU/DC_MOTOR/ecu_dc_motor.c: 74:         pin_con
      +                          fig_t pin_1;;ECU/DC_MOTOR/ecu_dc_motor.c: 75:         pin_1.Pin = obj->dc_motor[0].dc_mo
      +                          tor_pin;
  1503   0019A8  5009               	movf	dc_motor_move_right@obj^0,w,c
  1504   0019AA  6ED9               	movwf	fsr2l,c
  1505   0019AC  6ADA               	clrf	fsr2h,c
  1506   0019AE  38DF               	swapf	223,w,c
  1507   0019B0  0B07               	andlw	7
  1508   0019B2  6E0A               	movwf	??_dc_motor_move_right^0,c
  1509   0019B4  500C               	movf	dc_motor_move_right@pin_1^0,w,c
  1510   0019B6  180A               	xorwf	??_dc_motor_move_right^0,w,c
  1511   0019B8  0BF8               	andlw	-8
  1512   0019BA  180A               	xorwf	??_dc_motor_move_right^0,w,c
  1513   0019BC  6E0C               	movwf	dc_motor_move_right@pin_1^0,c
  1514                           
  1515                           ;ECU/DC_MOTOR/ecu_dc_motor.c: 76:         pin_1.Port = obj->dc_motor[0].dc_motor_port;
  1516   0019BE  5009               	movf	dc_motor_move_right@obj^0,w,c
  1517   0019C0  6ED9               	movwf	fsr2l,c
  1518   0019C2  6ADA               	clrf	fsr2h,c
  1519   0019C4  50DF               	movf	223,w,c
  1520   0019C6  0B0F               	andlw	15
  1521   0019C8  6E0A               	movwf	??_dc_motor_move_right^0,c
  1522   0019CA  460A               	rlncf	??_dc_motor_move_right^0,f,c
  1523   0019CC  460A               	rlncf	??_dc_motor_move_right^0,f,c
  1524   0019CE  460A               	rlncf	??_dc_motor_move_right^0,f,c
  1525   0019D0  500C               	movf	dc_motor_move_right@pin_1^0,w,c
  1526   0019D2  180A               	xorwf	??_dc_motor_move_right^0,w,c
  1527   0019D4  0BC7               	andlw	-57
  1528   0019D6  180A               	xorwf	??_dc_motor_move_right^0,w,c
  1529   0019D8  6E0C               	movwf	dc_motor_move_right@pin_1^0,c
  1530   0019DA                     
  1531                           ;ECU/DC_MOTOR/ecu_dc_motor.c: 77:         pin_1.Direction = GPIO_OUTPUT;
  1532   0019DA  9E0C               	bcf	dc_motor_move_right@pin_1^0,7,c
  1533   0019DC                     
  1534                           ;ECU/DC_MOTOR/ecu_dc_motor.c: 78:         pin_1.Logic = obj->dc_motor[0].motor_status;
  1535   0019DC  5009               	movf	dc_motor_move_right@obj^0,w,c
  1536   0019DE  6ED9               	movwf	fsr2l,c
  1537   0019E0  6ADA               	clrf	fsr2h,c
  1538   0019E2  AEDF               	btfss	indf2,7,c
  1539   0019E4  D002               	bra	u2115
  1540   0019E6  8C0C               	bsf	dc_motor_move_right@pin_1^0,6,c
  1541   0019E8  D001               	bra	u2117
  1542   0019EA                     u2115:
  1543   0019EA  9C0C               	bcf	dc_motor_move_right@pin_1^0,6,c
  1544   0019EC                     u2117:
  1545   0019EC                     
  1546                           ;ECU/DC_MOTOR/ecu_dc_motor.c: 80:         pin_config_t pin_2;;ECU/DC_MOTOR/ecu_dc_motor.
      +                          c: 81:         pin_2.Pin = obj->dc_motor[1].dc_motor_pin;
  1547   0019EC  5009               	movf	dc_motor_move_right@obj^0,w,c
  1548   0019EE  6ED9               	movwf	fsr2l,c
  1549   0019F0  6ADA               	clrf	fsr2h,c
  1550   0019F2  0E01               	movlw	1
  1551   0019F4  26D9               	addwf	fsr2l,f,c
  1552   0019F6  38DF               	swapf	223,w,c
  1553   0019F8  0B07               	andlw	7
  1554   0019FA  6E0A               	movwf	??_dc_motor_move_right^0,c
  1555   0019FC  500D               	movf	dc_motor_move_right@pin_2^0,w,c
  1556   0019FE  180A               	xorwf	??_dc_motor_move_right^0,w,c
  1557   001A00  0BF8               	andlw	-8
  1558   001A02  180A               	xorwf	??_dc_motor_move_right^0,w,c
  1559   001A04  6E0D               	movwf	dc_motor_move_right@pin_2^0,c
  1560   001A06                     
  1561                           ;ECU/DC_MOTOR/ecu_dc_motor.c: 82:         pin_2.Port = obj->dc_motor[1].dc_motor_port;
  1562   001A06  5009               	movf	dc_motor_move_right@obj^0,w,c
  1563   001A08  6ED9               	movwf	fsr2l,c
  1564   001A0A  6ADA               	clrf	fsr2h,c
  1565   001A0C  0E01               	movlw	1
  1566   001A0E  26D9               	addwf	fsr2l,f,c
  1567   001A10  50DF               	movf	223,w,c
  1568   001A12  0B0F               	andlw	15
  1569   001A14  6E0A               	movwf	??_dc_motor_move_right^0,c
  1570   001A16  460A               	rlncf	??_dc_motor_move_right^0,f,c
  1571   001A18  460A               	rlncf	??_dc_motor_move_right^0,f,c
  1572   001A1A  460A               	rlncf	??_dc_motor_move_right^0,f,c
  1573   001A1C  500D               	movf	dc_motor_move_right@pin_2^0,w,c
  1574   001A1E  180A               	xorwf	??_dc_motor_move_right^0,w,c
  1575   001A20  0BC7               	andlw	-57
  1576   001A22  180A               	xorwf	??_dc_motor_move_right^0,w,c
  1577   001A24  6E0D               	movwf	dc_motor_move_right@pin_2^0,c
  1578   001A26                     
  1579                           ;ECU/DC_MOTOR/ecu_dc_motor.c: 83:         pin_2.Direction = GPIO_OUTPUT;
  1580   001A26  9E0D               	bcf	dc_motor_move_right@pin_2^0,7,c
  1581   001A28                     
  1582                           ;ECU/DC_MOTOR/ecu_dc_motor.c: 84:         pin_2.Logic = obj->dc_motor[1].motor_status;
  1583   001A28  5009               	movf	dc_motor_move_right@obj^0,w,c
  1584   001A2A  6ED9               	movwf	fsr2l,c
  1585   001A2C  6ADA               	clrf	fsr2h,c
  1586   001A2E  0E01               	movlw	1
  1587   001A30  26D9               	addwf	fsr2l,f,c
  1588   001A32  AEDF               	btfss	indf2,7,c
  1589   001A34  D002               	bra	u2125
  1590   001A36  8C0D               	bsf	dc_motor_move_right@pin_2^0,6,c
  1591   001A38  D001               	bra	u2127
  1592   001A3A                     u2125:
  1593   001A3A  9C0D               	bcf	dc_motor_move_right@pin_2^0,6,c
  1594   001A3C                     u2127:
  1595   001A3C  0E0C               	movlw	low dc_motor_move_right@pin_1
  1596   001A3E  6E01               	movwf	gpio_pin_write_logic@pin_config^0,c
  1597   001A40  0E01               	movlw	1
  1598   001A42  6E02               	movwf	gpio_pin_write_logic@logic^0,c
  1599   001A44  EC5C  F00A         	call	_gpio_pin_write_logic	;wreg free
  1600   001A48                     
  1601                           ;ECU/DC_MOTOR/ecu_dc_motor.c: 87:         ret = gpio_pin_write_logic(&pin_2, GPIO_LOW);
  1602   001A48  0E0D               	movlw	low dc_motor_move_right@pin_2
  1603   001A4A  6E01               	movwf	gpio_pin_write_logic@pin_config^0,c
  1604   001A4C  0E00               	movlw	0
  1605   001A4E  6E02               	movwf	gpio_pin_write_logic@logic^0,c
  1606   001A50  EC5C  F00A         	call	_gpio_pin_write_logic	;wreg free
  1607   001A54  6E0B               	movwf	dc_motor_move_right@ret^0,c
  1608   001A56                     l3213:
  1609                           
  1610                           ;ECU/DC_MOTOR/ecu_dc_motor.c: 90:     return ret;
  1611   001A56  500B               	movf	dc_motor_move_right@ret^0,w,c
  1612   001A58  0012               	return		;funcret
  1613   001A5A                     __end_of_dc_motor_move_right:
  1614                           	callstack 0
  1615                           
  1616 ;; *************** function _Welcom *****************
  1617 ;; Defined at:
  1618 ;;		line 168 in file "main.c"
  1619 ;; Parameters:    Size  Location     Type
  1620 ;;		None
  1621 ;; Auto vars:     Size  Location     Type
  1622 ;;  l_welcom_cou    1   26[COMRAM] unsigned char 
  1623 ;; Return value:  Size  Location     Type
  1624 ;;                  1    wreg      void 
  1625 ;; Registers used:
  1626 ;;		wreg, fsr0l, fsr0h, fsr2l, fsr2h, status,2, status,0, tblptrl, tblptrh, tblptru, prodl, prodh, cstack
  1627 ;; Tracked objects:
  1628 ;;		On entry : 0/0
  1629 ;;		On exit  : 0/0
  1630 ;;		Unchanged: 0/0
  1631 ;; Data sizes:     COMRAM   BANK0   BANK1   BANK2   BANK3   BANK4   BANK5   BANK6   BANK7   BANK8   BANK9  BANK10  BANK1
      +1  BANK12  BANK13  BANK14  BANK15
  1632 ;;      Params:         0       0       0       0       0       0       0       0       0       0       0       0       
      +0       0       0       0       0
  1633 ;;      Locals:         1       0       0       0       0       0       0       0       0       0       0       0       
      +0       0       0       0       0
  1634 ;;      Temps:          2       0       0       0       0       0       0       0       0       0       0       0       
      +0       0       0       0       0
  1635 ;;      Totals:         3       0       0       0       0       0       0       0       0       0       0       0       
      +0       0       0       0       0
  1636 ;;Total ram usage:        3 bytes
  1637 ;; Hardware stack levels used: 1
  1638 ;; Hardware stack levels required when called: 4
  1639 ;; This function calls:
  1640 ;;		_lcd_4bit_send_command
  1641 ;;		_lcd_4bit_send_string_data
  1642 ;; This function is called by:
  1643 ;;		_main
  1644 ;; This function uses a non-reentrant model
  1645 ;;
  1646                           
  1647                           	psect	text5
  1648   001A5A                     __ptext5:
  1649                           	callstack 0
  1650   001A5A                     _Welcom:
  1651                           	callstack 26
  1652   001A5A                     
  1653                           ;main.c: 172:     ret = lcd_4bit_send_string_data(&lcd1, " Welcom");
  1654   001A5A  0E46               	movlw	low _lcd1
  1655   001A5C  6E12               	movwf	lcd_4bit_send_string_data@lcd^0,c
  1656   001A5E  0E54               	movlw	low STR_9
  1657   001A60  6E13               	movwf	lcd_4bit_send_string_data@str_data^0,c
  1658   001A62  5013               	movf	lcd_4bit_send_string_data@str_data^0,w,c
  1659   001A64  A4D8               	btfss	status,2,c
  1660   001A66  0E10               	movlw	high __smallconst
  1661   001A68  6E14               	movwf	(lcd_4bit_send_string_data@str_data+1)^0,c
  1662   001A6A  EC53  F00E         	call	_lcd_4bit_send_string_data	;wreg free
  1663   001A6E  6E5A               	movwf	_ret^0,c
  1664   001A70                     
  1665                           ;main.c: 173:     _delay((unsigned long)((100)*(8000000/4000.0)));
  1666   001A70  0E02               	movlw	2
  1667   001A72  6E1A               	movwf	(??_Welcom+1)^0,c
  1668   001A74  0E04               	movlw	4
  1669   001A76  6E19               	movwf	??_Welcom^0,c
  1670   001A78  0EBA               	movlw	186
  1671   001A7A                     u2447:
  1672   001A7A  2EE8               	decfsz	wreg,f,c
  1673   001A7C  D7FE               	bra	u2447
  1674   001A7E  2E19               	decfsz	??_Welcom^0,f,c
  1675   001A80  D7FC               	bra	u2447
  1676   001A82  2E1A               	decfsz	(??_Welcom+1)^0,f,c
  1677   001A84  D7FA               	bra	u2447
  1678   001A86  F000 F000          	nop2	
  1679   001A8A                     
  1680                           ;main.c: 174:  for(l_welcom_counter =0; l_welcom_counter<12; l_welcom_counter++)
  1681   001A8A  0E00               	movlw	0
  1682   001A8C  6E1B               	movwf	Welcom@l_welcom_counter^0,c
  1683   001A8E                     l3097:
  1684                           
  1685                           ;main.c: 175:  {;main.c: 176:   ret = lcd_4bit_send_command(&lcd1, 0X1C);
  1686   001A8E  0E46               	movlw	low _lcd1
  1687   001A90  6E0F               	movwf	lcd_4bit_send_command@lcd^0,c
  1688   001A92  0E1C               	movlw	28
  1689   001A94  6E10               	movwf	lcd_4bit_send_command@command^0,c
  1690   001A96  ECA9  F010         	call	_lcd_4bit_send_command	;wreg free
  1691   001A9A  6E5A               	movwf	_ret^0,c
  1692   001A9C                     
  1693                           ;main.c: 177:   _delay((unsigned long)((100)*(8000000/4000.0)));
  1694   001A9C  0E02               	movlw	2
  1695   001A9E  6E1A               	movwf	(??_Welcom+1)^0,c
  1696   001AA0  0E04               	movlw	4
  1697   001AA2  6E19               	movwf	??_Welcom^0,c
  1698   001AA4  0EBA               	movlw	186
  1699   001AA6                     u2457:
  1700   001AA6  2EE8               	decfsz	wreg,f,c
  1701   001AA8  D7FE               	bra	u2457
  1702   001AAA  2E19               	decfsz	??_Welcom^0,f,c
  1703   001AAC  D7FC               	bra	u2457
  1704   001AAE  2E1A               	decfsz	(??_Welcom+1)^0,f,c
  1705   001AB0  D7FA               	bra	u2457
  1706   001AB2  F000 F000          	nop2	
  1707   001AB6                     
  1708                           ;main.c: 178:  }
  1709   001AB6  2A1B               	incf	Welcom@l_welcom_counter^0,f,c
  1710   001AB8  0E0B               	movlw	11
  1711   001ABA  641B               	cpfsgt	Welcom@l_welcom_counter^0,c
  1712   001ABC  EF62  F00D         	goto	u2031
  1713   001AC0  EF64  F00D         	goto	u2030
  1714   001AC4                     u2031:
  1715   001AC4  EF47  F00D         	goto	l3097
  1716   001AC8                     u2030:
  1717   001AC8                     
  1718                           ;main.c: 180:  for(l_welcom_counter =0; l_welcom_counter<12; l_welcom_counter++)
  1719   001AC8  0E00               	movlw	0
  1720   001ACA  6E1B               	movwf	Welcom@l_welcom_counter^0,c
  1721   001ACC                     l3111:
  1722                           
  1723                           ;main.c: 181:  {;main.c: 182:   ret = lcd_4bit_send_command(&lcd1, 0X18);
  1724   001ACC  0E46               	movlw	low _lcd1
  1725   001ACE  6E0F               	movwf	lcd_4bit_send_command@lcd^0,c
  1726   001AD0  0E18               	movlw	24
  1727   001AD2  6E10               	movwf	lcd_4bit_send_command@command^0,c
  1728   001AD4  ECA9  F010         	call	_lcd_4bit_send_command	;wreg free
  1729   001AD8  6E5A               	movwf	_ret^0,c
  1730   001ADA                     
  1731                           ;main.c: 183:   _delay((unsigned long)((100)*(8000000/4000.0)));
  1732   001ADA  0E02               	movlw	2
  1733   001ADC  6E1A               	movwf	(??_Welcom+1)^0,c
  1734   001ADE  0E04               	movlw	4
  1735   001AE0  6E19               	movwf	??_Welcom^0,c
  1736   001AE2  0EBA               	movlw	186
  1737   001AE4                     u2467:
  1738   001AE4  2EE8               	decfsz	wreg,f,c
  1739   001AE6  D7FE               	bra	u2467
  1740   001AE8  2E19               	decfsz	??_Welcom^0,f,c
  1741   001AEA  D7FC               	bra	u2467
  1742   001AEC  2E1A               	decfsz	(??_Welcom+1)^0,f,c
  1743   001AEE  D7FA               	bra	u2467
  1744   001AF0  F000 F000          	nop2	
  1745   001AF4                     
  1746                           ;main.c: 185:  }
  1747   001AF4  2A1B               	incf	Welcom@l_welcom_counter^0,f,c
  1748   001AF6  0E0B               	movlw	11
  1749   001AF8  641B               	cpfsgt	Welcom@l_welcom_counter^0,c
  1750   001AFA  EF81  F00D         	goto	u2041
  1751   001AFE  EF83  F00D         	goto	u2040
  1752   001B02                     u2041:
  1753   001B02  EF66  F00D         	goto	l3111
  1754   001B06                     u2040:
  1755   001B06                     
  1756                           ;main.c: 187:     ret = lcd_4bit_send_command(&lcd1, 0X01);
  1757   001B06  0E46               	movlw	low _lcd1
  1758   001B08  6E0F               	movwf	lcd_4bit_send_command@lcd^0,c
  1759   001B0A  0E01               	movlw	1
  1760   001B0C  6E10               	movwf	lcd_4bit_send_command@command^0,c
  1761   001B0E  ECA9  F010         	call	_lcd_4bit_send_command	;wreg free
  1762   001B12  6E5A               	movwf	_ret^0,c
  1763                           
  1764                           ;main.c: 188:     ret = lcd_4bit_send_command(&lcd1, 0X02);
  1765   001B14  0E46               	movlw	low _lcd1
  1766   001B16  6E0F               	movwf	lcd_4bit_send_command@lcd^0,c
  1767   001B18  0E02               	movlw	2
  1768   001B1A  6E10               	movwf	lcd_4bit_send_command@command^0,c
  1769   001B1C  ECA9  F010         	call	_lcd_4bit_send_command	;wreg free
  1770   001B20  6E5A               	movwf	_ret^0,c
  1771   001B22  0012               	return		;funcret
  1772   001B24                     __end_of_Welcom:
  1773                           	callstack 0
  1774                           
  1775 ;; *************** function _Set_Password *****************
  1776 ;; Defined at:
  1777 ;;		line 191 in file "main.c"
  1778 ;; Parameters:    Size  Location     Type
  1779 ;;		None
  1780 ;; Auto vars:     Size  Location     Type
  1781 ;;  Keypad_Value    4   41[COMRAM] unsigned char [4]
  1782 ;;  Return_Value    2   39[COMRAM] unsigned short 
  1783 ;;  l_Counter       1   45[COMRAM] unsigned char 
  1784 ;; Return value:  Size  Location     Type
  1785 ;;                  2   29[COMRAM] unsigned short 
  1786 ;; Registers used:
  1787 ;;		wreg, fsr0l, fsr0h, fsr1l, fsr1h, fsr2l, fsr2h, status,2, status,0, tblptrl, tblptrh, tblptru, prodl, prodh, cstack
  1788 ;; Tracked objects:
  1789 ;;		On entry : 0/0
  1790 ;;		On exit  : 0/0
  1791 ;;		Unchanged: 0/0
  1792 ;; Data sizes:     COMRAM   BANK0   BANK1   BANK2   BANK3   BANK4   BANK5   BANK6   BANK7   BANK8   BANK9  BANK10  BANK1
      +1  BANK12  BANK13  BANK14  BANK15
  1793 ;;      Params:         2       0       0       0       0       0       0       0       0       0       0       0       
      +0       0       0       0       0
  1794 ;;      Locals:         7       0       0       0       0       0       0       0       0       0       0       0       
      +0       0       0       0       0
  1795 ;;      Temps:          8       0       0       0       0       0       0       0       0       0       0       0       
      +0       0       0       0       0
  1796 ;;      Totals:        17       0       0       0       0       0       0       0       0       0       0       0       
      +0       0       0       0       0
  1797 ;;Total ram usage:       17 bytes
  1798 ;; Hardware stack levels used: 1
  1799 ;; Hardware stack levels required when called: 5
  1800 ;; This function calls:
  1801 ;;		___wmul
  1802 ;;		_keypad_get_value
  1803 ;;		_lcd_4bit_send_command
  1804 ;;		_lcd_4bit_send_string_data
  1805 ;;		_lcd_4bit_send_string_data_pos
  1806 ;; This function is called by:
  1807 ;;		_main
  1808 ;; This function uses a non-reentrant model
  1809 ;;
  1810                           
  1811                           	psect	text6
  1812   0015D6                     __ptext6:
  1813                           	callstack 0
  1814   0015D6                     _Set_Password:
  1815                           	callstack 25
  1816   0015D6                     
  1817                           ;main.c: 194:     uint8 l_Counter = 0;
  1818   0015D6  0E00               	movlw	0
  1819   0015D8  6E2E               	movwf	Set_Password@l_Counter^0,c
  1820                           
  1821                           ;main.c: 195:     uint8 Keypad_Value[4] = {0};
  1822   0015DA  0E00               	movlw	0
  1823   0015DC  6E2A               	movwf	Set_Password@Keypad_Value^0,c
  1824   0015DE  0E00               	movlw	0
  1825   0015E0  6E2B               	movwf	(Set_Password@Keypad_Value+1)^0,c
  1826   0015E2  0E00               	movlw	0
  1827   0015E4  6E2C               	movwf	(Set_Password@Keypad_Value+2)^0,c
  1828   0015E6  0E00               	movlw	0
  1829   0015E8  6E2D               	movwf	(Set_Password@Keypad_Value+3)^0,c
  1830   0015EA                     
  1831                           ;main.c: 196:     ret = lcd_4bit_send_string_data(&lcd1, "PLease Set Password");
  1832   0015EA  0E46               	movlw	low _lcd1
  1833   0015EC  6E12               	movwf	lcd_4bit_send_string_data@lcd^0,c
  1834   0015EE  0E11               	movlw	low STR_10
  1835   0015F0  6E13               	movwf	lcd_4bit_send_string_data@str_data^0,c
  1836   0015F2  5013               	movf	lcd_4bit_send_string_data@str_data^0,w,c
  1837   0015F4  A4D8               	btfss	status,2,c
  1838   0015F6  0E10               	movlw	high __smallconst
  1839   0015F8  6E14               	movwf	(lcd_4bit_send_string_data@str_data+1)^0,c
  1840   0015FA  EC53  F00E         	call	_lcd_4bit_send_string_data	;wreg free
  1841   0015FE  6E5A               	movwf	_ret^0,c
  1842   001600                     
  1843                           ;main.c: 197:     ret = lcd_4bit_send_string_data_pos(&lcd1, 2, 7, " ");
  1844   001600  0E46               	movlw	low _lcd1
  1845   001602  6E19               	movwf	lcd_4bit_send_string_data_pos@lcd^0,c
  1846   001604  0E02               	movlw	2
  1847   001606  6E1A               	movwf	lcd_4bit_send_string_data_pos@row^0,c
  1848   001608  0E07               	movlw	7
  1849   00160A  6E1B               	movwf	lcd_4bit_send_string_data_pos@coulmn^0,c
  1850   00160C  0E69               	movlw	low STR_11
  1851   00160E  6E1C               	movwf	lcd_4bit_send_string_data_pos@str_data^0,c
  1852   001610  ECD8  F010         	call	_lcd_4bit_send_string_data_pos	;wreg free
  1853   001614  6E5A               	movwf	_ret^0,c
  1854   001616                     
  1855                           ;main.c: 198:     ret = lcd_4bit_send_command(&lcd1,0X0E);
  1856   001616  0E46               	movlw	low _lcd1
  1857   001618  6E0F               	movwf	lcd_4bit_send_command@lcd^0,c
  1858   00161A  0E0E               	movlw	14
  1859   00161C  6E10               	movwf	lcd_4bit_send_command@command^0,c
  1860   00161E  ECA9  F010         	call	_lcd_4bit_send_command	;wreg free
  1861   001622  6E5A               	movwf	_ret^0,c
  1862                           
  1863                           ;main.c: 201:     while(l_Counter < 4)
  1864   001624  EF3F  F00B         	goto	l3139
  1865   001628                     l3129:
  1866                           
  1867                           ;main.c: 202:     {;main.c: 204:         ret = keypad_get_value(&key1, &(Keypad_Value[l_
      +                          Counter]));
  1868   001628  0E6A               	movlw	low _key1
  1869   00162A  6E09               	movwf	keypad_get_value@obj^0,c
  1870   00162C  502E               	movf	Set_Password@l_Counter^0,w,c
  1871   00162E  0F2A               	addlw	low Set_Password@Keypad_Value
  1872   001630  6E0A               	movwf	keypad_get_value@value^0,c
  1873   001632  ECEE  F00B         	call	_keypad_get_value	;wreg free
  1874   001636  6E5A               	movwf	_ret^0,c
  1875   001638                     
  1876                           ;main.c: 206:         if (Keypad_Value[l_Counter] != 0)
  1877   001638  502E               	movf	Set_Password@l_Counter^0,w,c
  1878   00163A  0F2A               	addlw	low Set_Password@Keypad_Value
  1879   00163C  6ED9               	movwf	fsr2l,c
  1880   00163E  6ADA               	clrf	fsr2h,c
  1881   001640  50DF               	movf	indf2,w,c
  1882   001642  B4D8               	btfsc	status,2,c
  1883   001644  EF26  F00B         	goto	u2051
  1884   001648  EF28  F00B         	goto	u2050
  1885   00164C                     u2051:
  1886   00164C  EF3F  F00B         	goto	l3139
  1887   001650                     u2050:
  1888   001650                     
  1889                           ;main.c: 207:         {;main.c: 208:             ret = lcd_4bit_send_string_data(&lcd1, 
      +                          "*");
  1890   001650  0E46               	movlw	low _lcd1
  1891   001652  6E12               	movwf	lcd_4bit_send_string_data@lcd^0,c
  1892   001654  0E6B               	movlw	low STR_12
  1893   001656  6E13               	movwf	lcd_4bit_send_string_data@str_data^0,c
  1894   001658  5013               	movf	lcd_4bit_send_string_data@str_data^0,w,c
  1895   00165A  A4D8               	btfss	status,2,c
  1896   00165C  0E10               	movlw	high __smallconst
  1897   00165E  6E14               	movwf	(lcd_4bit_send_string_data@str_data+1)^0,c
  1898   001660  EC53  F00E         	call	_lcd_4bit_send_string_data	;wreg free
  1899   001664  6E5A               	movwf	_ret^0,c
  1900   001666                     
  1901                           ;main.c: 209:             l_Counter++;
  1902   001666  2A2E               	incf	Set_Password@l_Counter^0,f,c
  1903   001668                     
  1904                           ;main.c: 210:             _delay((unsigned long)((250)*(8000000/4000.0)));
  1905   001668  0E03               	movlw	3
  1906   00166A  6E21               	movwf	(??_Set_Password+1)^0,c
  1907   00166C  0E8A               	movlw	138
  1908   00166E  6E20               	movwf	??_Set_Password^0,c
  1909   001670  0E56               	movlw	86
  1910   001672                     u2477:
  1911   001672  2EE8               	decfsz	wreg,f,c
  1912   001674  D7FE               	bra	u2477
  1913   001676  2E20               	decfsz	??_Set_Password^0,f,c
  1914   001678  D7FC               	bra	u2477
  1915   00167A  2E21               	decfsz	(??_Set_Password+1)^0,f,c
  1916   00167C  D7FA               	bra	u2477
  1917   00167E                     l3139:
  1918                           
  1919                           ;main.c: 201:     while(l_Counter < 4)
  1920   00167E  0E03               	movlw	3
  1921   001680  642E               	cpfsgt	Set_Password@l_Counter^0,c
  1922   001682  EF45  F00B         	goto	u2061
  1923   001686  EF47  F00B         	goto	u2060
  1924   00168A                     u2061:
  1925   00168A  EF14  F00B         	goto	l3129
  1926   00168E                     u2060:
  1927   00168E                     
  1928                           ;main.c: 215:     Return_Value = (Keypad_Value[3]- 48)+ (Keypad_Value[2]- 48)*10 + (Keyp
      +                          ad_Value[1]- 48)*100 + (Keypad_Value[0]- 48) *1000;
  1929   00168E  C02A  F001         	movff	Set_Password@Keypad_Value,___wmul@multiplier
  1930   001692  6A02               	clrf	(___wmul@multiplier+1)^0,c
  1931   001694  0E03               	movlw	3
  1932   001696  6E04               	movwf	(___wmul@multiplicand+1)^0,c
  1933   001698  0EE8               	movlw	232
  1934   00169A  6E03               	movwf	___wmul@multiplicand^0,c
  1935   00169C  EC8E  F011         	call	___wmul	;wreg free
  1936   0016A0  502C               	movf	(Set_Password@Keypad_Value+2)^0,w,c
  1937   0016A2  0D0A               	mullw	10
  1938   0016A4  CFF3 F020          	movff	prodl,??_Set_Password
  1939   0016A8  CFF4 F021          	movff	prodh,??_Set_Password+1
  1940   0016AC  502B               	movf	(Set_Password@Keypad_Value+1)^0,w,c
  1941   0016AE  0D64               	mullw	100
  1942   0016B0  CFF3 F022          	movff	prodl,??_Set_Password+2
  1943   0016B4  CFF4 F023          	movff	prodh,??_Set_Password+3
  1944   0016B8  5020               	movf	??_Set_Password^0,w,c
  1945   0016BA  2422               	addwf	(??_Set_Password+2)^0,w,c
  1946   0016BC  6E24               	movwf	(??_Set_Password+4)^0,c
  1947   0016BE  5021               	movf	(??_Set_Password+1)^0,w,c
  1948   0016C0  2023               	addwfc	(??_Set_Password+3)^0,w,c
  1949   0016C2  6E25               	movwf	(??_Set_Password+5)^0,c
  1950   0016C4  5001               	movf	?___wmul^0,w,c
  1951   0016C6  2424               	addwf	(??_Set_Password+4)^0,w,c
  1952   0016C8  6E26               	movwf	(??_Set_Password+6)^0,c
  1953   0016CA  5002               	movf	(?___wmul+1)^0,w,c
  1954   0016CC  2025               	addwfc	(??_Set_Password+5)^0,w,c
  1955   0016CE  6E27               	movwf	(??_Set_Password+7)^0,c
  1956   0016D0  502D               	movf	(Set_Password@Keypad_Value+3)^0,w,c
  1957   0016D2  2626               	addwf	(??_Set_Password+6)^0,f,c
  1958   0016D4  0E00               	movlw	0
  1959   0016D6  2227               	addwfc	(??_Set_Password+7)^0,f,c
  1960   0016D8  0EB0               	movlw	176
  1961   0016DA  2426               	addwf	(??_Set_Password+6)^0,w,c
  1962   0016DC  6E28               	movwf	Set_Password@Return_Value^0,c
  1963   0016DE  0E2F               	movlw	47
  1964   0016E0  2027               	addwfc	(??_Set_Password+7)^0,w,c
  1965   0016E2  6E29               	movwf	(Set_Password@Return_Value+1)^0,c
  1966   0016E4                     
  1967                           ;main.c: 217:     return Return_Value;
  1968   0016E4  C028  F01E         	movff	Set_Password@Return_Value,?_Set_Password
  1969   0016E8  C029  F01F         	movff	Set_Password@Return_Value+1,?_Set_Password+1
  1970   0016EC  0012               	return		;funcret
  1971   0016EE                     __end_of_Set_Password:
  1972                           	callstack 0
  1973                           
  1974 ;; *************** function _SYSTEM_Initialize *****************
  1975 ;; Defined at:
  1976 ;;		line 50 in file "mcc_generated_files/mcc.c"
  1977 ;; Parameters:    Size  Location     Type
  1978 ;;		None
  1979 ;; Auto vars:     Size  Location     Type
  1980 ;;		None
  1981 ;; Return value:  Size  Location     Type
  1982 ;;                  1    wreg      void 
  1983 ;; Registers used:
  1984 ;;		wreg, status,2, cstack
  1985 ;; Tracked objects:
  1986 ;;		On entry : 0/0
  1987 ;;		On exit  : 0/0
  1988 ;;		Unchanged: 0/0
  1989 ;; Data sizes:     COMRAM   BANK0   BANK1   BANK2   BANK3   BANK4   BANK5   BANK6   BANK7   BANK8   BANK9  BANK10  BANK1
      +1  BANK12  BANK13  BANK14  BANK15
  1990 ;;      Params:         0       0       0       0       0       0       0       0       0       0       0       0       
      +0       0       0       0       0
  1991 ;;      Locals:         0       0       0       0       0       0       0       0       0       0       0       0       
      +0       0       0       0       0
  1992 ;;      Temps:          0       0       0       0       0       0       0       0       0       0       0       0       
      +0       0       0       0       0
  1993 ;;      Totals:         0       0       0       0       0       0       0       0       0       0       0       0       
      +0       0       0       0       0
  1994 ;;Total ram usage:        0 bytes
  1995 ;; Hardware stack levels used: 1
  1996 ;; Hardware stack levels required when called: 1
  1997 ;; This function calls:
  1998 ;;		_OSCILLATOR_Initialize
  1999 ;;		_PIN_MANAGER_Initialize
  2000 ;; This function is called by:
  2001 ;;		_main
  2002 ;; This function uses a non-reentrant model
  2003 ;;
  2004                           
  2005                           	psect	text7
  2006   002388                     __ptext7:
  2007                           	callstack 0
  2008   002388                     _SYSTEM_Initialize:
  2009                           	callstack 29
  2010   002388                     
  2011                           ;mcc_generated_files/mcc.c: 53:     PIN_MANAGER_Initialize();
  2012   002388  EC61  F011         	call	_PIN_MANAGER_Initialize	;wreg free
  2013                           
  2014                           ;mcc_generated_files/mcc.c: 54:     OSCILLATOR_Initialize();
  2015   00238C  ECC9  F011         	call	_OSCILLATOR_Initialize	;wreg free
  2016   002390  0012               	return		;funcret
  2017   002392                     __end_of_SYSTEM_Initialize:
  2018                           	callstack 0
  2019                           
  2020 ;; *************** function _PIN_MANAGER_Initialize *****************
  2021 ;; Defined at:
  2022 ;;		line 55 in file "mcc_generated_files/pin_manager.c"
  2023 ;; Parameters:    Size  Location     Type
  2024 ;;		None
  2025 ;; Auto vars:     Size  Location     Type
  2026 ;;		None
  2027 ;; Return value:  Size  Location     Type
  2028 ;;                  1    wreg      void 
  2029 ;; Registers used:
  2030 ;;		wreg, status,2
  2031 ;; Tracked objects:
  2032 ;;		On entry : 0/0
  2033 ;;		On exit  : 0/0
  2034 ;;		Unchanged: 0/0
  2035 ;; Data sizes:     COMRAM   BANK0   BANK1   BANK2   BANK3   BANK4   BANK5   BANK6   BANK7   BANK8   BANK9  BANK10  BANK1
      +1  BANK12  BANK13  BANK14  BANK15
  2036 ;;      Params:         0       0       0       0       0       0       0       0       0       0       0       0       
      +0       0       0       0       0
  2037 ;;      Locals:         0       0       0       0       0       0       0       0       0       0       0       0       
      +0       0       0       0       0
  2038 ;;      Temps:          0       0       0       0       0       0       0       0       0       0       0       0       
      +0       0       0       0       0
  2039 ;;      Totals:         0       0       0       0       0       0       0       0       0       0       0       0       
      +0       0       0       0       0
  2040 ;;Total ram usage:        0 bytes
  2041 ;; Hardware stack levels used: 1
  2042 ;; This function calls:
  2043 ;;		Nothing
  2044 ;; This function is called by:
  2045 ;;		_SYSTEM_Initialize
  2046 ;; This function uses a non-reentrant model
  2047 ;;
  2048                           
  2049                           	psect	text8
  2050   0022C2                     __ptext8:
  2051                           	callstack 0
  2052   0022C2                     _PIN_MANAGER_Initialize:
  2053                           	callstack 29
  2054   0022C2                     
  2055                           ;mcc_generated_files/pin_manager.c: 60:     LATE = 0x00;
  2056   0022C2  0E00               	movlw	0
  2057   0022C4  6E8D               	movwf	141,c	;volatile
  2058                           
  2059                           ;mcc_generated_files/pin_manager.c: 61:     LATD = 0x00;
  2060   0022C6  0E00               	movlw	0
  2061   0022C8  6E8C               	movwf	140,c	;volatile
  2062                           
  2063                           ;mcc_generated_files/pin_manager.c: 62:     LATA = 0x00;
  2064   0022CA  0E00               	movlw	0
  2065   0022CC  6E89               	movwf	137,c	;volatile
  2066                           
  2067                           ;mcc_generated_files/pin_manager.c: 63:     LATB = 0x00;
  2068   0022CE  0E00               	movlw	0
  2069   0022D0  6E8A               	movwf	138,c	;volatile
  2070                           
  2071                           ;mcc_generated_files/pin_manager.c: 64:     LATC = 0x00;
  2072   0022D2  0E00               	movlw	0
  2073   0022D4  6E8B               	movwf	139,c	;volatile
  2074                           
  2075                           ;mcc_generated_files/pin_manager.c: 69:     TRISE = 0x07;
  2076   0022D6  0E07               	movlw	7
  2077   0022D8  6E96               	movwf	150,c	;volatile
  2078   0022DA                     
  2079                           ;mcc_generated_files/pin_manager.c: 70:     TRISA = 0xFF;
  2080   0022DA  6892               	setf	146,c	;volatile
  2081   0022DC                     
  2082                           ;mcc_generated_files/pin_manager.c: 71:     TRISB = 0xFF;
  2083   0022DC  6893               	setf	147,c	;volatile
  2084   0022DE                     
  2085                           ;mcc_generated_files/pin_manager.c: 72:     TRISC = 0xFF;
  2086   0022DE  6894               	setf	148,c	;volatile
  2087                           
  2088                           ;mcc_generated_files/pin_manager.c: 73:     TRISD = 0xFE;
  2089   0022E0  0EFE               	movlw	254
  2090   0022E2  6E95               	movwf	149,c	;volatile
  2091   0022E4                     
  2092                           ;mcc_generated_files/pin_manager.c: 78:     ANSEL = 0xFF;
  2093   0022E4  687E               	setf	126,c	;volatile
  2094                           
  2095                           ;mcc_generated_files/pin_manager.c: 79:     ANSELH = 0x1F;
  2096   0022E6  0E1F               	movlw	31
  2097   0022E8  6E7F               	movwf	127,c	;volatile
  2098                           
  2099                           ;mcc_generated_files/pin_manager.c: 84:     WPUB = 0x00;
  2100   0022EA  0E00               	movlw	0
  2101   0022EC  6E7C               	movwf	124,c	;volatile
  2102   0022EE                     
  2103                           ;mcc_generated_files/pin_manager.c: 85:     INTCON2bits.nRBPU = 1;
  2104   0022EE  8EF1               	bsf	241,7,c	;volatile
  2105   0022F0  0012               	return		;funcret
  2106   0022F2                     __end_of_PIN_MANAGER_Initialize:
  2107                           	callstack 0
  2108                           
  2109 ;; *************** function _OSCILLATOR_Initialize *****************
  2110 ;; Defined at:
  2111 ;;		line 57 in file "mcc_generated_files/mcc.c"
  2112 ;; Parameters:    Size  Location     Type
  2113 ;;		None
  2114 ;; Auto vars:     Size  Location     Type
  2115 ;;		None
  2116 ;; Return value:  Size  Location     Type
  2117 ;;                  1    wreg      void 
  2118 ;; Registers used:
  2119 ;;		wreg, status,2
  2120 ;; Tracked objects:
  2121 ;;		On entry : 0/0
  2122 ;;		On exit  : 0/0
  2123 ;;		Unchanged: 0/0
  2124 ;; Data sizes:     COMRAM   BANK0   BANK1   BANK2   BANK3   BANK4   BANK5   BANK6   BANK7   BANK8   BANK9  BANK10  BANK1
      +1  BANK12  BANK13  BANK14  BANK15
  2125 ;;      Params:         0       0       0       0       0       0       0       0       0       0       0       0       
      +0       0       0       0       0
  2126 ;;      Locals:         0       0       0       0       0       0       0       0       0       0       0       0       
      +0       0       0       0       0
  2127 ;;      Temps:          0       0       0       0       0       0       0       0       0       0       0       0       
      +0       0       0       0       0
  2128 ;;      Totals:         0       0       0       0       0       0       0       0       0       0       0       0       
      +0       0       0       0       0
  2129 ;;Total ram usage:        0 bytes
  2130 ;; Hardware stack levels used: 1
  2131 ;; This function calls:
  2132 ;;		Nothing
  2133 ;; This function is called by:
  2134 ;;		_SYSTEM_Initialize
  2135 ;; This function uses a non-reentrant model
  2136 ;;
  2137                           
  2138                           	psect	text9
  2139   002392                     __ptext9:
  2140                           	callstack 0
  2141   002392                     _OSCILLATOR_Initialize:
  2142                           	callstack 29
  2143   002392                     
  2144                           ;mcc_generated_files/mcc.c: 60:     OSCCON = 0x30;
  2145   002392  0E30               	movlw	48
  2146   002394  6ED3               	movwf	211,c	;volatile
  2147                           
  2148                           ;mcc_generated_files/mcc.c: 62:     OSCTUNE = 0x00;
  2149   002396  0E00               	movlw	0
  2150   002398  6E9B               	movwf	155,c	;volatile
  2151   00239A  0012               	return		;funcret
  2152   00239C                     __end_of_OSCILLATOR_Initialize:
  2153                           	callstack 0
  2154                           
  2155 ;; *************** function _Read_Password_EEPROM *****************
  2156 ;; Defined at:
  2157 ;;		line 220 in file "main.c"
  2158 ;; Parameters:    Size  Location     Type
  2159 ;;		None
  2160 ;; Auto vars:     Size  Location     Type
  2161 ;;  Return_Value    2    7[COMRAM] unsigned short 
  2162 ;; Return value:  Size  Location     Type
  2163 ;;                  2    2[COMRAM] unsigned short 
  2164 ;; Registers used:
  2165 ;;		wreg, status,2, status,0, cstack
  2166 ;; Tracked objects:
  2167 ;;		On entry : 0/0
  2168 ;;		On exit  : 0/0
  2169 ;;		Unchanged: 0/0
  2170 ;; Data sizes:     COMRAM   BANK0   BANK1   BANK2   BANK3   BANK4   BANK5   BANK6   BANK7   BANK8   BANK9  BANK10  BANK1
      +1  BANK12  BANK13  BANK14  BANK15
  2171 ;;      Params:         2       0       0       0       0       0       0       0       0       0       0       0       
      +0       0       0       0       0
  2172 ;;      Locals:         2       0       0       0       0       0       0       0       0       0       0       0       
      +0       0       0       0       0
  2173 ;;      Temps:          3       0       0       0       0       0       0       0       0       0       0       0       
      +0       0       0       0       0
  2174 ;;      Totals:         7       0       0       0       0       0       0       0       0       0       0       0       
      +0       0       0       0       0
  2175 ;;Total ram usage:        7 bytes
  2176 ;; Hardware stack levels used: 1
  2177 ;; Hardware stack levels required when called: 1
  2178 ;; This function calls:
  2179 ;;		_DATAEE_ReadByte
  2180 ;; This function is called by:
  2181 ;;		_main
  2182 ;; This function uses a non-reentrant model
  2183 ;;
  2184                           
  2185                           	psect	text10
  2186   002288                     __ptext10:
  2187                           	callstack 0
  2188   002288                     _Read_Password_EEPROM:
  2189                           	callstack 29
  2190   002288                     
  2191                           ;main.c: 224:     Return_Value = (uint8)DATAEE_ReadByte(0x0120);
  2192   002288  0E01               	movlw	1
  2193   00228A  6E02               	movwf	(DATAEE_ReadByte@bAdd+1)^0,c
  2194   00228C  0E20               	movlw	32
  2195   00228E  6E01               	movwf	DATAEE_ReadByte@bAdd^0,c
  2196   002290  ECAF  F011         	call	_DATAEE_ReadByte	;wreg free
  2197   002294  6E05               	movwf	??_Read_Password_EEPROM^0,c
  2198   002296  5005               	movf	??_Read_Password_EEPROM^0,w,c
  2199   002298  6E08               	movwf	Read_Password_EEPROM@Return_Value^0,c
  2200   00229A  6A09               	clrf	(Read_Password_EEPROM@Return_Value+1)^0,c
  2201   00229C                     
  2202                           ;main.c: 226:     Return_Value |= (uint16)( DATAEE_ReadByte(0x0121) << 8 );
  2203   00229C  0E01               	movlw	1
  2204   00229E  6E02               	movwf	(DATAEE_ReadByte@bAdd+1)^0,c
  2205   0022A0  0E21               	movlw	33
  2206   0022A2  6E01               	movwf	DATAEE_ReadByte@bAdd^0,c
  2207   0022A4  ECAF  F011         	call	_DATAEE_ReadByte	;wreg free
  2208   0022A8  6E05               	movwf	??_Read_Password_EEPROM^0,c
  2209   0022AA  5005               	movf	??_Read_Password_EEPROM^0,w,c
  2210   0022AC  6E07               	movwf	(??_Read_Password_EEPROM+2)^0,c
  2211   0022AE  6A06               	clrf	(??_Read_Password_EEPROM+1)^0,c
  2212   0022B0  5006               	movf	(??_Read_Password_EEPROM+1)^0,w,c
  2213   0022B2  1208               	iorwf	Read_Password_EEPROM@Return_Value^0,f,c
  2214   0022B4  5007               	movf	(??_Read_Password_EEPROM+2)^0,w,c
  2215   0022B6  1209               	iorwf	(Read_Password_EEPROM@Return_Value+1)^0,f,c
  2216   0022B8                     
  2217                           ;main.c: 228:     return Return_Value;
  2218   0022B8  C008  F003         	movff	Read_Password_EEPROM@Return_Value,?_Read_Password_EEPROM
  2219   0022BC  C009  F004         	movff	Read_Password_EEPROM@Return_Value+1,?_Read_Password_EEPROM+1
  2220   0022C0  0012               	return		;funcret
  2221   0022C2                     __end_of_Read_Password_EEPROM:
  2222                           	callstack 0
  2223                           
  2224 ;; *************** function _DATAEE_ReadByte *****************
  2225 ;; Defined at:
  2226 ;;		line 196 in file "mcc_generated_files/memory.c"
  2227 ;; Parameters:    Size  Location     Type
  2228 ;;  bAdd            2    0[COMRAM] unsigned short 
  2229 ;; Auto vars:     Size  Location     Type
  2230 ;;		None
  2231 ;; Return value:  Size  Location     Type
  2232 ;;                  1    wreg      unsigned char 
  2233 ;; Registers used:
  2234 ;;		wreg, status,2, status,0
  2235 ;; Tracked objects:
  2236 ;;		On entry : 0/0
  2237 ;;		On exit  : 0/0
  2238 ;;		Unchanged: 0/0
  2239 ;; Data sizes:     COMRAM   BANK0   BANK1   BANK2   BANK3   BANK4   BANK5   BANK6   BANK7   BANK8   BANK9  BANK10  BANK1
      +1  BANK12  BANK13  BANK14  BANK15
  2240 ;;      Params:         2       0       0       0       0       0       0       0       0       0       0       0       
      +0       0       0       0       0
  2241 ;;      Locals:         0       0       0       0       0       0       0       0       0       0       0       0       
      +0       0       0       0       0
  2242 ;;      Temps:          0       0       0       0       0       0       0       0       0       0       0       0       
      +0       0       0       0       0
  2243 ;;      Totals:         2       0       0       0       0       0       0       0       0       0       0       0       
      +0       0       0       0       0
  2244 ;;Total ram usage:        2 bytes
  2245 ;; Hardware stack levels used: 1
  2246 ;; This function calls:
  2247 ;;		Nothing
  2248 ;; This function is called by:
  2249 ;;		_main
  2250 ;;		_Read_Password_EEPROM
  2251 ;; This function uses a non-reentrant model
  2252 ;;
  2253                           
  2254                           	psect	text11
  2255   00235E                     __ptext11:
  2256                           	callstack 0
  2257   00235E                     _DATAEE_ReadByte:
  2258                           	callstack 29
  2259   00235E                     
  2260                           ;mcc_generated_files/memory.c: 196: uint8_t DATAEE_ReadByte(uint16_t bAdd);mcc_generated
      +                          _files/memory.c: 197: {;mcc_generated_files/memory.c: 198:     EEADRH = ((bAdd >> 8) & 0
      +                          x03);
  2261   00235E  5002               	movf	(DATAEE_ReadByte@bAdd+1)^0,w,c
  2262   002360  0B03               	andlw	3
  2263   002362  6EAA               	movwf	170,c	;volatile
  2264   002364                     
  2265                           ;mcc_generated_files/memory.c: 199:     EEADR = (bAdd & 0xFF);
  2266   002364  C001  FFA9         	movff	DATAEE_ReadByte@bAdd,4009	;volatile
  2267   002368                     
  2268                           ;mcc_generated_files/memory.c: 200:     EECON1bits.CFGS = 0;
  2269   002368  9CA6               	bcf	166,6,c	;volsfr
  2270   00236A                     
  2271                           ;mcc_generated_files/memory.c: 201:     EECON1bits.EEPGD = 0;
  2272   00236A  9EA6               	bcf	166,7,c	;volsfr
  2273   00236C                     
  2274                           ;mcc_generated_files/memory.c: 202:     EECON1bits.RD = 1;
  2275   00236C  80A6               	bsf	166,0,c	;volsfr
  2276   00236E                     
  2277                           ;mcc_generated_files/memory.c: 203:     __nop();
  2278   00236E  0000               	nop	
  2279   002370                     
  2280                           ;mcc_generated_files/memory.c: 204:     __nop();
  2281   002370  0000               	nop	
  2282   002372                     
  2283                           ;mcc_generated_files/memory.c: 206:     return (EEDATA);
  2284   002372  50A8               	movf	168,w,c	;volatile
  2285   002374  0012               	return		;funcret
  2286   002376                     __end_of_DATAEE_ReadByte:
  2287                           	callstack 0
  2288                           
  2289 ;; *************** function _DATAEE_WriteByte *****************
  2290 ;; Defined at:
  2291 ;;		line 173 in file "mcc_generated_files/memory.c"
  2292 ;; Parameters:    Size  Location     Type
  2293 ;;  bAdd            2    0[COMRAM] unsigned short 
  2294 ;;  bData           1    2[COMRAM] unsigned char 
  2295 ;; Auto vars:     Size  Location     Type
  2296 ;;  GIEBitValue     1    3[COMRAM] unsigned char 
  2297 ;; Return value:  Size  Location     Type
  2298 ;;                  1    wreg      void 
  2299 ;; Registers used:
  2300 ;;		wreg, status,2, status,0
  2301 ;; Tracked objects:
  2302 ;;		On entry : 0/0
  2303 ;;		On exit  : 0/0
  2304 ;;		Unchanged: 0/0
  2305 ;; Data sizes:     COMRAM   BANK0   BANK1   BANK2   BANK3   BANK4   BANK5   BANK6   BANK7   BANK8   BANK9  BANK10  BANK1
      +1  BANK12  BANK13  BANK14  BANK15
  2306 ;;      Params:         3       0       0       0       0       0       0       0       0       0       0       0       
      +0       0       0       0       0
  2307 ;;      Locals:         1       0       0       0       0       0       0       0       0       0       0       0       
      +0       0       0       0       0
  2308 ;;      Temps:          0       0       0       0       0       0       0       0       0       0       0       0       
      +0       0       0       0       0
  2309 ;;      Totals:         4       0       0       0       0       0       0       0       0       0       0       0       
      +0       0       0       0       0
  2310 ;;Total ram usage:        4 bytes
  2311 ;; Hardware stack levels used: 1
  2312 ;; This function calls:
  2313 ;;		Nothing
  2314 ;; This function is called by:
  2315 ;;		_main
  2316 ;; This function uses a non-reentrant model
  2317 ;;
  2318                           
  2319                           	psect	text12
  2320   002202                     __ptext12:
  2321                           	callstack 0
  2322   002202                     _DATAEE_WriteByte:
  2323                           	callstack 30
  2324   002202                     
  2325                           ;mcc_generated_files/memory.c: 173: void DATAEE_WriteByte(uint16_t bAdd, uint8_t bData);
      +                          mcc_generated_files/memory.c: 174: {;mcc_generated_files/memory.c: 175:     uint8_t GIEB
      +                          itValue = INTCONbits.GIE;
  2326   002202  0E00               	movlw	0
  2327   002204  BEF2               	btfsc	242,7,c	;volatile
  2328   002206  0E01               	movlw	1
  2329   002208  6E04               	movwf	DATAEE_WriteByte@GIEBitValue^0,c
  2330   00220A                     
  2331                           ;mcc_generated_files/memory.c: 177:     EEADRH = ((bAdd >> 8) & 0x03);
  2332   00220A  5002               	movf	(DATAEE_WriteByte@bAdd+1)^0,w,c
  2333   00220C  0B03               	andlw	3
  2334   00220E  6EAA               	movwf	170,c	;volatile
  2335   002210                     
  2336                           ;mcc_generated_files/memory.c: 178:     EEADR = (bAdd & 0xFF);
  2337   002210  C001  FFA9         	movff	DATAEE_WriteByte@bAdd,4009	;volatile
  2338   002214                     
  2339                           ;mcc_generated_files/memory.c: 179:     EEDATA = bData;
  2340   002214  C003  FFA8         	movff	DATAEE_WriteByte@bData,4008	;volatile
  2341   002218                     
  2342                           ;mcc_generated_files/memory.c: 180:     EECON1bits.EEPGD = 0;
  2343   002218  9EA6               	bcf	166,7,c	;volsfr
  2344   00221A                     
  2345                           ;mcc_generated_files/memory.c: 181:     EECON1bits.CFGS = 0;
  2346   00221A  9CA6               	bcf	166,6,c	;volsfr
  2347   00221C                     
  2348                           ;mcc_generated_files/memory.c: 182:     EECON1bits.WREN = 1;
  2349   00221C  84A6               	bsf	166,2,c	;volsfr
  2350   00221E                     
  2351                           ;mcc_generated_files/memory.c: 183:     INTCONbits.GIE = 0;
  2352   00221E  9EF2               	bcf	242,7,c	;volatile
  2353   002220                     
  2354                           ;mcc_generated_files/memory.c: 184:     EECON2 = 0x55;
  2355   002220  0E55               	movlw	85
  2356   002222  6EA7               	movwf	167,c	;volsfr
  2357   002224                     
  2358                           ;mcc_generated_files/memory.c: 185:     EECON2 = 0xAA;
  2359   002224  0EAA               	movlw	170
  2360   002226  6EA7               	movwf	167,c	;volsfr
  2361   002228                     
  2362                           ;mcc_generated_files/memory.c: 186:     EECON1bits.WR = 1;
  2363   002228  82A6               	bsf	166,1,c	;volsfr
  2364   00222A                     l484:
  2365                           
  2366                           ;mcc_generated_files/memory.c: 188:     while (EECON1bits.WR)
  2367   00222A  B2A6               	btfsc	166,1,c	;volsfr
  2368   00222C  EF1A  F011         	goto	u2011
  2369   002230  EF1C  F011         	goto	u2010
  2370   002234                     u2011:
  2371   002234  EF15  F011         	goto	l484
  2372   002238                     u2010:
  2373   002238                     
  2374                           ;mcc_generated_files/memory.c: 192:     EECON1bits.WREN = 0;
  2375   002238  94A6               	bcf	166,2,c	;volsfr
  2376                           
  2377                           ;mcc_generated_files/memory.c: 193:     INTCONbits.GIE = GIEBitValue;
  2378   00223A  B004               	btfsc	DATAEE_WriteByte@GIEBitValue^0,0,c
  2379   00223C  D002               	bra	u2025
  2380   00223E  9EF2               	bcf	242,7,c	;volatile
  2381   002240  D001               	bra	u2026
  2382   002242                     u2025:
  2383   002242  8EF2               	bsf	242,7,c	;volatile
  2384   002244                     u2026:
  2385   002244  0012               	return		;funcret
  2386   002246                     __end_of_DATAEE_WriteByte:
  2387                           	callstack 0
  2388                           
  2389 ;; *************** function _Check_Password *****************
  2390 ;; Defined at:
  2391 ;;		line 232 in file "main.c"
  2392 ;; Parameters:    Size  Location     Type
  2393 ;;  Password        2   29[COMRAM] unsigned short 
  2394 ;; Auto vars:     Size  Location     Type
  2395 ;;  Keypad_Value    4   42[COMRAM] unsigned char [4]
  2396 ;;  Enter_Passwo    2   39[COMRAM] unsigned short 
  2397 ;;  l_Counter       1   46[COMRAM] unsigned char 
  2398 ;;  Ret_value       1   41[COMRAM] unsigned char 
  2399 ;; Return value:  Size  Location     Type
  2400 ;;                  1    wreg      unsigned char 
  2401 ;; Registers used:
  2402 ;;		wreg, fsr0l, fsr0h, fsr1l, fsr1h, fsr2l, fsr2h, status,2, status,0, tblptrl, tblptrh, tblptru, prodl, prodh, cstack
  2403 ;; Tracked objects:
  2404 ;;		On entry : 0/0
  2405 ;;		On exit  : 0/0
  2406 ;;		Unchanged: 0/0
  2407 ;; Data sizes:     COMRAM   BANK0   BANK1   BANK2   BANK3   BANK4   BANK5   BANK6   BANK7   BANK8   BANK9  BANK10  BANK1
      +1  BANK12  BANK13  BANK14  BANK15
  2408 ;;      Params:         2       0       0       0       0       0       0       0       0       0       0       0       
      +0       0       0       0       0
  2409 ;;      Locals:         8       0       0       0       0       0       0       0       0       0       0       0       
      +0       0       0       0       0
  2410 ;;      Temps:          8       0       0       0       0       0       0       0       0       0       0       0       
      +0       0       0       0       0
  2411 ;;      Totals:        18       0       0       0       0       0       0       0       0       0       0       0       
      +0       0       0       0       0
  2412 ;;Total ram usage:       18 bytes
  2413 ;; Hardware stack levels used: 1
  2414 ;; Hardware stack levels required when called: 5
  2415 ;; This function calls:
  2416 ;;		___wmul
  2417 ;;		_keypad_get_value
  2418 ;;		_lcd_4bit_send_command
  2419 ;;		_lcd_4bit_send_string_data
  2420 ;;		_lcd_4bit_send_string_data_pos
  2421 ;; This function is called by:
  2422 ;;		_main
  2423 ;; This function uses a non-reentrant model
  2424 ;;
  2425                           
  2426                           	psect	text13
  2427   001224                     __ptext13:
  2428                           	callstack 0
  2429   001224                     _Check_Password:
  2430                           	callstack 25
  2431   001224                     
  2432                           ;main.c: 236:     uint8 Keypad_Value[4] = {0};
  2433   001224  0E00               	movlw	0
  2434   001226  6E2B               	movwf	Check_Password@Keypad_Value^0,c
  2435   001228  0E00               	movlw	0
  2436   00122A  6E2C               	movwf	(Check_Password@Keypad_Value+1)^0,c
  2437   00122C  0E00               	movlw	0
  2438   00122E  6E2D               	movwf	(Check_Password@Keypad_Value+2)^0,c
  2439   001230  0E00               	movlw	0
  2440   001232  6E2E               	movwf	(Check_Password@Keypad_Value+3)^0,c
  2441                           
  2442                           ;main.c: 237:     uint8 l_Counter = 0;
  2443   001234  0E00               	movlw	0
  2444   001236  6E2F               	movwf	Check_Password@l_Counter^0,c
  2445   001238                     
  2446                           ;main.c: 238:     ret = lcd_4bit_send_command(&lcd1, 0X01);
  2447   001238  0E46               	movlw	low _lcd1
  2448   00123A  6E0F               	movwf	lcd_4bit_send_command@lcd^0,c
  2449   00123C  0E01               	movlw	1
  2450   00123E  6E10               	movwf	lcd_4bit_send_command@command^0,c
  2451   001240  ECA9  F010         	call	_lcd_4bit_send_command	;wreg free
  2452   001244  6E5A               	movwf	_ret^0,c
  2453   001246                     
  2454                           ;main.c: 239:     ret = lcd_4bit_send_command(&lcd1, 0X02);
  2455   001246  0E46               	movlw	low _lcd1
  2456   001248  6E0F               	movwf	lcd_4bit_send_command@lcd^0,c
  2457   00124A  0E02               	movlw	2
  2458   00124C  6E10               	movwf	lcd_4bit_send_command@command^0,c
  2459   00124E  ECA9  F010         	call	_lcd_4bit_send_command	;wreg free
  2460   001252  6E5A               	movwf	_ret^0,c
  2461   001254                     
  2462                           ;main.c: 241:     ret = lcd_4bit_send_string_data(&lcd1, "Please Enter Pass");
  2463   001254  0E46               	movlw	low _lcd1
  2464   001256  6E12               	movwf	lcd_4bit_send_string_data@lcd^0,c
  2465   001258  0E38               	movlw	low STR_13
  2466   00125A  6E13               	movwf	lcd_4bit_send_string_data@str_data^0,c
  2467   00125C  5013               	movf	lcd_4bit_send_string_data@str_data^0,w,c
  2468   00125E  A4D8               	btfss	status,2,c
  2469   001260  0E10               	movlw	high __smallconst
  2470   001262  6E14               	movwf	(lcd_4bit_send_string_data@str_data+1)^0,c
  2471   001264  EC53  F00E         	call	_lcd_4bit_send_string_data	;wreg free
  2472   001268  6E5A               	movwf	_ret^0,c
  2473   00126A                     
  2474                           ;main.c: 242:     ret = lcd_4bit_send_string_data_pos(&lcd1, 2, 7, " ");
  2475   00126A  0E46               	movlw	low _lcd1
  2476   00126C  6E19               	movwf	lcd_4bit_send_string_data_pos@lcd^0,c
  2477   00126E  0E02               	movlw	2
  2478   001270  6E1A               	movwf	lcd_4bit_send_string_data_pos@row^0,c
  2479   001272  0E07               	movlw	7
  2480   001274  6E1B               	movwf	lcd_4bit_send_string_data_pos@coulmn^0,c
  2481   001276  0E69               	movlw	low STR_11
  2482   001278  6E1C               	movwf	lcd_4bit_send_string_data_pos@str_data^0,c
  2483   00127A  ECD8  F010         	call	_lcd_4bit_send_string_data_pos	;wreg free
  2484   00127E  6E5A               	movwf	_ret^0,c
  2485   001280                     
  2486                           ;main.c: 243:     ret = lcd_4bit_send_command(&lcd1,0X0E);
  2487   001280  0E46               	movlw	low _lcd1
  2488   001282  6E0F               	movwf	lcd_4bit_send_command@lcd^0,c
  2489   001284  0E0E               	movlw	14
  2490   001286  6E10               	movwf	lcd_4bit_send_command@command^0,c
  2491   001288  ECA9  F010         	call	_lcd_4bit_send_command	;wreg free
  2492   00128C  6E5A               	movwf	_ret^0,c
  2493                           
  2494                           ;main.c: 245:     while(l_Counter < 4)
  2495   00128E  EF74  F009         	goto	l3179
  2496   001292                     l3169:
  2497                           
  2498                           ;main.c: 246:     {;main.c: 247:         ret = keypad_get_value(&key1, &(Keypad_Value[l_
      +                          Counter]));
  2499   001292  0E6A               	movlw	low _key1
  2500   001294  6E09               	movwf	keypad_get_value@obj^0,c
  2501   001296  502F               	movf	Check_Password@l_Counter^0,w,c
  2502   001298  0F2B               	addlw	low Check_Password@Keypad_Value
  2503   00129A  6E0A               	movwf	keypad_get_value@value^0,c
  2504   00129C  ECEE  F00B         	call	_keypad_get_value	;wreg free
  2505   0012A0  6E5A               	movwf	_ret^0,c
  2506   0012A2                     
  2507                           ;main.c: 248:         if (Keypad_Value[l_Counter] != 0)
  2508   0012A2  502F               	movf	Check_Password@l_Counter^0,w,c
  2509   0012A4  0F2B               	addlw	low Check_Password@Keypad_Value
  2510   0012A6  6ED9               	movwf	fsr2l,c
  2511   0012A8  6ADA               	clrf	fsr2h,c
  2512   0012AA  50DF               	movf	indf2,w,c
  2513   0012AC  B4D8               	btfsc	status,2,c
  2514   0012AE  EF5B  F009         	goto	u2071
  2515   0012B2  EF5D  F009         	goto	u2070
  2516   0012B6                     u2071:
  2517   0012B6  EF74  F009         	goto	l3179
  2518   0012BA                     u2070:
  2519   0012BA                     
  2520                           ;main.c: 249:         {;main.c: 250:             ret = lcd_4bit_send_string_data(&lcd1, 
      +                          &(Keypad_Value[l_Counter]));
  2521   0012BA  0E46               	movlw	low _lcd1
  2522   0012BC  6E12               	movwf	lcd_4bit_send_string_data@lcd^0,c
  2523   0012BE  502F               	movf	Check_Password@l_Counter^0,w,c
  2524   0012C0  0F2B               	addlw	low Check_Password@Keypad_Value
  2525   0012C2  6E20               	movwf	??_Check_Password^0,c
  2526   0012C4  C020  F013         	movff	??_Check_Password,lcd_4bit_send_string_data@str_data
  2527   0012C8  6A14               	clrf	(lcd_4bit_send_string_data@str_data+1)^0,c
  2528   0012CA  EC53  F00E         	call	_lcd_4bit_send_string_data	;wreg free
  2529   0012CE  6E5A               	movwf	_ret^0,c
  2530   0012D0                     
  2531                           ;main.c: 251:             l_Counter++;
  2532   0012D0  2A2F               	incf	Check_Password@l_Counter^0,f,c
  2533   0012D2                     
  2534                           ;main.c: 252:             _delay((unsigned long)((250)*(8000000/4000.0)));
  2535   0012D2  0E03               	movlw	3
  2536   0012D4  6E21               	movwf	(??_Check_Password+1)^0,c
  2537   0012D6  0E8A               	movlw	138
  2538   0012D8  6E20               	movwf	??_Check_Password^0,c
  2539   0012DA  0E56               	movlw	86
  2540   0012DC                     u2487:
  2541   0012DC  2EE8               	decfsz	wreg,f,c
  2542   0012DE  D7FE               	bra	u2487
  2543   0012E0  2E20               	decfsz	??_Check_Password^0,f,c
  2544   0012E2  D7FC               	bra	u2487
  2545   0012E4  2E21               	decfsz	(??_Check_Password+1)^0,f,c
  2546   0012E6  D7FA               	bra	u2487
  2547   0012E8                     l3179:
  2548                           
  2549                           ;main.c: 245:     while(l_Counter < 4)
  2550   0012E8  0E03               	movlw	3
  2551   0012EA  642F               	cpfsgt	Check_Password@l_Counter^0,c
  2552   0012EC  EF7A  F009         	goto	u2081
  2553   0012F0  EF7C  F009         	goto	u2080
  2554   0012F4                     u2081:
  2555   0012F4  EF49  F009         	goto	l3169
  2556   0012F8                     u2080:
  2557   0012F8                     
  2558                           ;main.c: 257:     Enter_Password = (Keypad_Value[3]- 48)+ (Keypad_Value[2]- 48)*10 + (Ke
      +                          ypad_Value[1]- 48)*100 + (Keypad_Value[0]- 48) *1000;
  2559   0012F8  C02B  F001         	movff	Check_Password@Keypad_Value,___wmul@multiplier
  2560   0012FC  6A02               	clrf	(___wmul@multiplier+1)^0,c
  2561   0012FE  0E03               	movlw	3
  2562   001300  6E04               	movwf	(___wmul@multiplicand+1)^0,c
  2563   001302  0EE8               	movlw	232
  2564   001304  6E03               	movwf	___wmul@multiplicand^0,c
  2565   001306  EC8E  F011         	call	___wmul	;wreg free
  2566   00130A  502D               	movf	(Check_Password@Keypad_Value+2)^0,w,c
  2567   00130C  0D0A               	mullw	10
  2568   00130E  CFF3 F020          	movff	prodl,??_Check_Password
  2569   001312  CFF4 F021          	movff	prodh,??_Check_Password+1
  2570   001316  502C               	movf	(Check_Password@Keypad_Value+1)^0,w,c
  2571   001318  0D64               	mullw	100
  2572   00131A  CFF3 F022          	movff	prodl,??_Check_Password+2
  2573   00131E  CFF4 F023          	movff	prodh,??_Check_Password+3
  2574   001322  5020               	movf	??_Check_Password^0,w,c
  2575   001324  2422               	addwf	(??_Check_Password+2)^0,w,c
  2576   001326  6E24               	movwf	(??_Check_Password+4)^0,c
  2577   001328  5021               	movf	(??_Check_Password+1)^0,w,c
  2578   00132A  2023               	addwfc	(??_Check_Password+3)^0,w,c
  2579   00132C  6E25               	movwf	(??_Check_Password+5)^0,c
  2580   00132E  5001               	movf	?___wmul^0,w,c
  2581   001330  2424               	addwf	(??_Check_Password+4)^0,w,c
  2582   001332  6E26               	movwf	(??_Check_Password+6)^0,c
  2583   001334  5002               	movf	(?___wmul+1)^0,w,c
  2584   001336  2025               	addwfc	(??_Check_Password+5)^0,w,c
  2585   001338  6E27               	movwf	(??_Check_Password+7)^0,c
  2586   00133A  502E               	movf	(Check_Password@Keypad_Value+3)^0,w,c
  2587   00133C  2626               	addwf	(??_Check_Password+6)^0,f,c
  2588   00133E  0E00               	movlw	0
  2589   001340  2227               	addwfc	(??_Check_Password+7)^0,f,c
  2590   001342  0EB0               	movlw	176
  2591   001344  2426               	addwf	(??_Check_Password+6)^0,w,c
  2592   001346  6E28               	movwf	Check_Password@Enter_Password^0,c
  2593   001348  0E2F               	movlw	47
  2594   00134A  2027               	addwfc	(??_Check_Password+7)^0,w,c
  2595   00134C  6E29               	movwf	(Check_Password@Enter_Password+1)^0,c
  2596   00134E                     
  2597                           ;main.c: 259:     if(Password == Enter_Password)
  2598   00134E  5028               	movf	Check_Password@Enter_Password^0,w,c
  2599   001350  181E               	xorwf	Check_Password@Password^0,w,c
  2600   001352  E107               	bnz	u2091
  2601   001354  5029               	movf	(Check_Password@Enter_Password+1)^0,w,c
  2602   001356  181F               	xorwf	(Check_Password@Password+1)^0,w,c
  2603   001358  A4D8               	btfss	status,2,c
  2604   00135A  EFB1  F009         	goto	u2091
  2605   00135E  EFB3  F009         	goto	u2090
  2606   001362                     u2091:
  2607   001362  EFB7  F009         	goto	l3187
  2608   001366                     u2090:
  2609   001366                     
  2610                           ;main.c: 260:     {;main.c: 261:         Ret_value = 0x01;
  2611   001366  0E01               	movlw	1
  2612   001368  6E2A               	movwf	Check_Password@Ret_value^0,c
  2613                           
  2614                           ;main.c: 262:     }
  2615   00136A  EFB9  F009         	goto	l601
  2616   00136E                     l3187:
  2617                           
  2618                           ;main.c: 264:     {;main.c: 265:         Ret_value = 0x00;
  2619   00136E  0E00               	movlw	0
  2620   001370  6E2A               	movwf	Check_Password@Ret_value^0,c
  2621   001372                     l601:
  2622                           
  2623                           ;main.c: 268:     return Ret_value;
  2624   001372  502A               	movf	Check_Password@Ret_value^0,w,c
  2625   001374  0012               	return		;funcret
  2626   001376                     __end_of_Check_Password:
  2627                           	callstack 0
  2628                           
  2629 ;; *************** function _lcd_4bit_send_string_data_pos *****************
  2630 ;; Defined at:
  2631 ;;		line 260 in file "ECU/LCD/ecu_chr_lcd.c"
  2632 ;; Parameters:    Size  Location     Type
  2633 ;;  lcd             1   24[COMRAM] PTR const struct .
  2634 ;;		 -> lcd1(6), 
  2635 ;;  row             1   25[COMRAM] unsigned char 
  2636 ;;  coulmn          1   26[COMRAM] unsigned char 
  2637 ;;  str_data        1   27[COMRAM] PTR unsigned char 
  2638 ;;		 -> STR_14(2), STR_11(2), STR_8(10), STR_7(19), 
  2639 ;;		 -> STR_6(17), 
  2640 ;; Auto vars:     Size  Location     Type
  2641 ;;  Ret             1   28[COMRAM] unsigned char 
  2642 ;; Return value:  Size  Location     Type
  2643 ;;                  1    wreg      unsigned char 
  2644 ;; Registers used:
  2645 ;;		wreg, fsr0l, fsr0h, fsr2l, fsr2h, status,2, status,0, tblptrl, tblptrh, tblptru, prodl, prodh, cstack
  2646 ;; Tracked objects:
  2647 ;;		On entry : 0/0
  2648 ;;		On exit  : 0/0
  2649 ;;		Unchanged: 0/0
  2650 ;; Data sizes:     COMRAM   BANK0   BANK1   BANK2   BANK3   BANK4   BANK5   BANK6   BANK7   BANK8   BANK9  BANK10  BANK1
      +1  BANK12  BANK13  BANK14  BANK15
  2651 ;;      Params:         4       0       0       0       0       0       0       0       0       0       0       0       
      +0       0       0       0       0
  2652 ;;      Locals:         1       0       0       0       0       0       0       0       0       0       0       0       
      +0       0       0       0       0
  2653 ;;      Temps:          0       0       0       0       0       0       0       0       0       0       0       0       
      +0       0       0       0       0
  2654 ;;      Totals:         5       0       0       0       0       0       0       0       0       0       0       0       
      +0       0       0       0       0
  2655 ;;Total ram usage:        5 bytes
  2656 ;; Hardware stack levels used: 1
  2657 ;; Hardware stack levels required when called: 4
  2658 ;; This function calls:
  2659 ;;		_lcd_4bit_send_string_data
  2660 ;;		_lcd_4bit_set_cursor
  2661 ;; This function is called by:
  2662 ;;		_main
  2663 ;;		_Set_Password
  2664 ;;		_Check_Password
  2665 ;; This function uses a non-reentrant model
  2666 ;;
  2667                           
  2668                           	psect	text14
  2669   0021B0                     __ptext14:
  2670                           	callstack 0
  2671   0021B0                     _lcd_4bit_send_string_data_pos:
  2672                           	callstack 26
  2673   0021B0                     
  2674                           ;ECU/LCD/ecu_chr_lcd.c: 265:     if( (((void*)0) == lcd) || (((void*)0) == str_data) )
  2675   0021B0  5019               	movf	lcd_4bit_send_string_data_pos@lcd^0,w,c
  2676   0021B2  B4D8               	btfsc	status,2,c
  2677   0021B4  EFDE  F010         	goto	u1791
  2678   0021B8  EFE0  F010         	goto	u1790
  2679   0021BC                     u1791:
  2680   0021BC  EFE8  F010         	goto	l2847
  2681   0021C0                     u1790:
  2682   0021C0  501C               	movf	lcd_4bit_send_string_data_pos@str_data^0,w,c
  2683   0021C2  A4D8               	btfss	status,2,c
  2684   0021C4  EFE6  F010         	goto	u1801
  2685   0021C8  EFE8  F010         	goto	u1800
  2686   0021CC                     u1801:
  2687   0021CC  EFEC  F010         	goto	l2849
  2688   0021D0                     u1800:
  2689   0021D0                     l2847:
  2690                           
  2691                           ;ECU/LCD/ecu_chr_lcd.c: 266:     {;ECU/LCD/ecu_chr_lcd.c: 267:         Ret = (Std_Return
      +                          Type)0X00;
  2692   0021D0  0E00               	movlw	0
  2693   0021D2  6E1D               	movwf	lcd_4bit_send_string_data_pos@Ret^0,c
  2694                           
  2695                           ;ECU/LCD/ecu_chr_lcd.c: 268:     }
  2696   0021D4  EFFF  F010         	goto	l2853
  2697   0021D8                     l2849:
  2698   0021D8  C019  F012         	movff	lcd_4bit_send_string_data_pos@lcd,lcd_4bit_set_cursor@lcd
  2699   0021DC  C01A  F013         	movff	lcd_4bit_send_string_data_pos@row,lcd_4bit_set_cursor@row
  2700   0021E0  C01B  F014         	movff	lcd_4bit_send_string_data_pos@coulmn,lcd_4bit_set_cursor@coulmn
  2701   0021E4  ECAF  F00E         	call	_lcd_4bit_set_cursor	;wreg free
  2702   0021E8                     
  2703                           ;ECU/LCD/ecu_chr_lcd.c: 274:   Ret = lcd_4bit_send_string_data(lcd, str_data);
  2704   0021E8  C019  F012         	movff	lcd_4bit_send_string_data_pos@lcd,lcd_4bit_send_string_data@lcd
  2705   0021EC  C01C  F013         	movff	lcd_4bit_send_string_data_pos@str_data,lcd_4bit_send_string_data@str_data
  2706   0021F0  5013               	movf	lcd_4bit_send_string_data@str_data^0,w,c
  2707   0021F2  A4D8               	btfss	status,2,c
  2708   0021F4  0E10               	movlw	high __smallconst
  2709   0021F6  6E14               	movwf	(lcd_4bit_send_string_data@str_data+1)^0,c
  2710   0021F8  EC53  F00E         	call	_lcd_4bit_send_string_data	;wreg free
  2711   0021FC  6E1D               	movwf	lcd_4bit_send_string_data_pos@Ret^0,c
  2712   0021FE                     l2853:
  2713                           
  2714                           ;ECU/LCD/ecu_chr_lcd.c: 279:  return Ret;
  2715   0021FE  501D               	movf	lcd_4bit_send_string_data_pos@Ret^0,w,c
  2716   002200  0012               	return		;funcret
  2717   002202                     __end_of_lcd_4bit_send_string_data_pos:
  2718                           	callstack 0
  2719                           
  2720 ;; *************** function _lcd_4bit_set_cursor *****************
  2721 ;; Defined at:
  2722 ;;		line 1021 in file "ECU/LCD/ecu_chr_lcd.c"
  2723 ;; Parameters:    Size  Location     Type
  2724 ;;  lcd             1   17[COMRAM] PTR const struct .
  2725 ;;		 -> lcd1(6), 
  2726 ;;  row             1   18[COMRAM] unsigned char 
  2727 ;;  coulmn          1   19[COMRAM] unsigned char 
  2728 ;; Auto vars:     Size  Location     Type
  2729 ;;  Ret             1   22[COMRAM] unsigned char 
  2730 ;; Return value:  Size  Location     Type
  2731 ;;                  1    wreg      unsigned char 
  2732 ;; Registers used:
  2733 ;;		wreg, fsr2l, fsr2h, status,2, status,0, prodl, prodh, cstack
  2734 ;; Tracked objects:
  2735 ;;		On entry : 0/0
  2736 ;;		On exit  : 0/0
  2737 ;;		Unchanged: 0/0
  2738 ;; Data sizes:     COMRAM   BANK0   BANK1   BANK2   BANK3   BANK4   BANK5   BANK6   BANK7   BANK8   BANK9  BANK10  BANK1
      +1  BANK12  BANK13  BANK14  BANK15
  2739 ;;      Params:         3       0       0       0       0       0       0       0       0       0       0       0       
      +0       0       0       0       0
  2740 ;;      Locals:         1       0       0       0       0       0       0       0       0       0       0       0       
      +0       0       0       0       0
  2741 ;;      Temps:          2       0       0       0       0       0       0       0       0       0       0       0       
      +0       0       0       0       0
  2742 ;;      Totals:         6       0       0       0       0       0       0       0       0       0       0       0       
      +0       0       0       0       0
  2743 ;;Total ram usage:        6 bytes
  2744 ;; Hardware stack levels used: 1
  2745 ;; Hardware stack levels required when called: 3
  2746 ;; This function calls:
  2747 ;;		_lcd_4bit_send_command
  2748 ;; This function is called by:
  2749 ;;		_lcd_4bit_send_string_data_pos
  2750 ;;		_lcd_4bit_send_char_data_pos
  2751 ;; This function uses a non-reentrant model
  2752 ;;
  2753                           
  2754                           	psect	text15
  2755   001D5E                     __ptext15:
  2756                           	callstack 0
  2757   001D5E                     _lcd_4bit_set_cursor:
  2758                           	callstack 26
  2759   001D5E                     
  2760                           ;ECU/LCD/ecu_chr_lcd.c: 1021: static Std_ReturnType lcd_4bit_set_cursor(const chr_lcd_4b
      +                          it_t* lcd, uint8 row, uint8 coulmn);ECU/LCD/ecu_chr_lcd.c: 1022: {;ECU/LCD/ecu_chr_lcd.c
      +                          : 1024:  Std_ReturnType Ret = (Std_ReturnType)0X01;
  2761   001D5E  0E01               	movlw	1
  2762   001D60  6E17               	movwf	lcd_4bit_set_cursor@Ret^0,c
  2763                           
  2764                           ;ECU/LCD/ecu_chr_lcd.c: 1026:     if( ((void*)0) == lcd )
  2765   001D62  5012               	movf	lcd_4bit_set_cursor@lcd^0,w,c
  2766   001D64  A4D8               	btfss	status,2,c
  2767   001D66  EFB7  F00E         	goto	u1621
  2768   001D6A  EFB9  F00E         	goto	u1620
  2769   001D6E                     u1621:
  2770   001D6E  EFBD  F00E         	goto	l2675
  2771   001D72                     u1620:
  2772   001D72                     
  2773                           ;ECU/LCD/ecu_chr_lcd.c: 1027:     {;ECU/LCD/ecu_chr_lcd.c: 1028:         Ret = (Std_Retu
      +                          rnType)0X00;
  2774   001D72  0E00               	movlw	0
  2775   001D74  6E17               	movwf	lcd_4bit_set_cursor@Ret^0,c
  2776                           
  2777                           ;ECU/LCD/ecu_chr_lcd.c: 1029:     }
  2778   001D76  EF05  F00F         	goto	l2689
  2779   001D7A                     l2675:
  2780                           
  2781                           ;ECU/LCD/ecu_chr_lcd.c: 1032:     {;ECU/LCD/ecu_chr_lcd.c: 1033:   coulmn--;
  2782   001D7A  0614               	decf	lcd_4bit_set_cursor@coulmn^0,f,c
  2783                           
  2784                           ;ECU/LCD/ecu_chr_lcd.c: 1035:   switch(row)
  2785   001D7C  EFE8  F00E         	goto	l2687
  2786   001D80                     l2677:
  2787   001D80  C012  F00F         	movff	lcd_4bit_set_cursor@lcd,lcd_4bit_send_command@lcd
  2788   001D84  5014               	movf	lcd_4bit_set_cursor@coulmn^0,w,c
  2789   001D86  0F80               	addlw	128
  2790   001D88  6E10               	movwf	lcd_4bit_send_command@command^0,c
  2791   001D8A  ECA9  F010         	call	_lcd_4bit_send_command	;wreg free
  2792   001D8E  6E17               	movwf	lcd_4bit_set_cursor@Ret^0,c
  2793   001D90  EF05  F00F         	goto	l2689
  2794   001D94                     l2679:
  2795   001D94  C012  F00F         	movff	lcd_4bit_set_cursor@lcd,lcd_4bit_send_command@lcd
  2796   001D98  5014               	movf	lcd_4bit_set_cursor@coulmn^0,w,c
  2797   001D9A  0FC0               	addlw	192
  2798   001D9C  6E10               	movwf	lcd_4bit_send_command@command^0,c
  2799   001D9E  ECA9  F010         	call	_lcd_4bit_send_command	;wreg free
  2800   001DA2  6E17               	movwf	lcd_4bit_set_cursor@Ret^0,c
  2801   001DA4  EF05  F00F         	goto	l2689
  2802   001DA8                     l2681:
  2803   001DA8  C012  F00F         	movff	lcd_4bit_set_cursor@lcd,lcd_4bit_send_command@lcd
  2804   001DAC  5014               	movf	lcd_4bit_set_cursor@coulmn^0,w,c
  2805   001DAE  0F94               	addlw	148
  2806   001DB0  6E10               	movwf	lcd_4bit_send_command@command^0,c
  2807   001DB2  ECA9  F010         	call	_lcd_4bit_send_command	;wreg free
  2808   001DB6  6E17               	movwf	lcd_4bit_set_cursor@Ret^0,c
  2809   001DB8  EF05  F00F         	goto	l2689
  2810   001DBC                     l2683:
  2811   001DBC  C012  F00F         	movff	lcd_4bit_set_cursor@lcd,lcd_4bit_send_command@lcd
  2812   001DC0  5014               	movf	lcd_4bit_set_cursor@coulmn^0,w,c
  2813   001DC2  0FD4               	addlw	212
  2814   001DC4  6E10               	movwf	lcd_4bit_send_command@command^0,c
  2815   001DC6  ECA9  F010         	call	_lcd_4bit_send_command	;wreg free
  2816   001DCA  6E17               	movwf	lcd_4bit_set_cursor@Ret^0,c
  2817   001DCC  EF05  F00F         	goto	l2689
  2818   001DD0                     l2687:
  2819   001DD0  5013               	movf	lcd_4bit_set_cursor@row^0,w,c
  2820   001DD2  6E15               	movwf	??_lcd_4bit_set_cursor^0,c
  2821   001DD4  6A16               	clrf	(??_lcd_4bit_set_cursor+1)^0,c
  2822                           
  2823                           ; Switch on 2 bytes has been partitioned into a top level switch of size 1, and 1 sub-sw
      +                          itches
  2824                           ; Switch size 1, requested type "simple"
  2825                           ; Number of cases is 1, Range of values is 0 to 0
  2826                           ; switch strategies available:
  2827                           ; Name         Instructions Cycles
  2828                           ; simple_byte            4     3 (average)
  2829                           ;	Chosen strategy is simple_byte
  2830   001DD6  5016               	movf	(??_lcd_4bit_set_cursor+1)^0,w,c
  2831   001DD8  0A00               	xorlw	0	; case 0
  2832   001DDA  B4D8               	btfsc	status,2,c
  2833   001DDC  EFF2  F00E         	goto	l3571
  2834   001DE0  EF05  F00F         	goto	l2689
  2835   001DE4                     l3571:
  2836                           
  2837                           ; Switch size 1, requested type "simple"
  2838                           ; Number of cases is 4, Range of values is 1 to 4
  2839                           ; switch strategies available:
  2840                           ; Name         Instructions Cycles
  2841                           ; simple_byte           13     7 (average)
  2842                           ;	Chosen strategy is simple_byte
  2843   001DE4  5015               	movf	??_lcd_4bit_set_cursor^0,w,c
  2844   001DE6  0A01               	xorlw	1	; case 1
  2845   001DE8  B4D8               	btfsc	status,2,c
  2846   001DEA  EFC0  F00E         	goto	l2677
  2847   001DEE  0A03               	xorlw	3	; case 2
  2848   001DF0  B4D8               	btfsc	status,2,c
  2849   001DF2  EFCA  F00E         	goto	l2679
  2850   001DF6  0A01               	xorlw	1	; case 3
  2851   001DF8  B4D8               	btfsc	status,2,c
  2852   001DFA  EFD4  F00E         	goto	l2681
  2853   001DFE  0A07               	xorlw	7	; case 4
  2854   001E00  B4D8               	btfsc	status,2,c
  2855   001E02  EFDE  F00E         	goto	l2683
  2856   001E06  EF05  F00F         	goto	l2689
  2857   001E0A                     l2689:
  2858                           
  2859                           ;ECU/LCD/ecu_chr_lcd.c: 1052:  return Ret;
  2860   001E0A  5017               	movf	lcd_4bit_set_cursor@Ret^0,w,c
  2861   001E0C  0012               	return		;funcret
  2862   001E0E                     __end_of_lcd_4bit_set_cursor:
  2863                           	callstack 0
  2864                           
  2865 ;; *************** function _lcd_4bit_send_string_data *****************
  2866 ;; Defined at:
  2867 ;;		line 223 in file "ECU/LCD/ecu_chr_lcd.c"
  2868 ;; Parameters:    Size  Location     Type
  2869 ;;  lcd             1   17[COMRAM] PTR const struct .
  2870 ;;		 -> lcd1(6), 
  2871 ;;  str_data        2   18[COMRAM] PTR unsigned char 
  2872 ;;		 -> STR_14(2), STR_13(18), Check_Password@Keypad_Value(4), STR_12(2), 
  2873 ;;		 -> STR_11(2), STR_10(20), STR_9(8), STR_8(10), 
  2874 ;;		 -> STR_7(19), STR_6(17), 
  2875 ;; Auto vars:     Size  Location     Type
  2876 ;;  l_counter       1   23[COMRAM] unsigned char 
  2877 ;;  Ret             1   22[COMRAM] unsigned char 
  2878 ;; Return value:  Size  Location     Type
  2879 ;;                  1    wreg      unsigned char 
  2880 ;; Registers used:
  2881 ;;		wreg, fsr0l, fsr0h, fsr2l, fsr2h, status,2, status,0, tblptrl, tblptrh, tblptru, prodl, prodh, cstack
  2882 ;; Tracked objects:
  2883 ;;		On entry : 0/0
  2884 ;;		On exit  : 0/0
  2885 ;;		Unchanged: 0/0
  2886 ;; Data sizes:     COMRAM   BANK0   BANK1   BANK2   BANK3   BANK4   BANK5   BANK6   BANK7   BANK8   BANK9  BANK10  BANK1
      +1  BANK12  BANK13  BANK14  BANK15
  2887 ;;      Params:         3       0       0       0       0       0       0       0       0       0       0       0       
      +0       0       0       0       0
  2888 ;;      Locals:         2       0       0       0       0       0       0       0       0       0       0       0       
      +0       0       0       0       0
  2889 ;;      Temps:          2       0       0       0       0       0       0       0       0       0       0       0       
      +0       0       0       0       0
  2890 ;;      Totals:         7       0       0       0       0       0       0       0       0       0       0       0       
      +0       0       0       0       0
  2891 ;;Total ram usage:        7 bytes
  2892 ;; Hardware stack levels used: 1
  2893 ;; Hardware stack levels required when called: 3
  2894 ;; This function calls:
  2895 ;;		_lcd_4bit_send_char_data
  2896 ;; This function is called by:
  2897 ;;		_lcd_4bit_send_string_data_pos
  2898 ;;		_Welcom
  2899 ;;		_Set_Password
  2900 ;;		_Check_Password
  2901 ;; This function uses a non-reentrant model
  2902 ;;
  2903                           
  2904                           	psect	text16
  2905   001CA6                     __ptext16:
  2906                           	callstack 0
  2907   001CA6                     _lcd_4bit_send_string_data:
  2908                           	callstack 26
  2909   001CA6                     
  2910                           ;ECU/LCD/ecu_chr_lcd.c: 223: Std_ReturnType lcd_4bit_send_string_data(const chr_lcd_4bit
      +                          _t* lcd, uint8* str_data);ECU/LCD/ecu_chr_lcd.c: 224: {;ECU/LCD/ecu_chr_lcd.c: 226:  Std
      +                          _ReturnType Ret = (Std_ReturnType)0X01;
  2911   001CA6  0E01               	movlw	1
  2912   001CA8  6E17               	movwf	lcd_4bit_send_string_data@Ret^0,c
  2913                           
  2914                           ;ECU/LCD/ecu_chr_lcd.c: 228:     if( (((void*)0) == lcd) || (((void*)0) == str_data) )
  2915   001CAA  5012               	movf	lcd_4bit_send_string_data@lcd^0,w,c
  2916   001CAC  B4D8               	btfsc	status,2,c
  2917   001CAE  EF5B  F00E         	goto	u1631
  2918   001CB2  EF5D  F00E         	goto	u1630
  2919   001CB6                     u1631:
  2920   001CB6  EF66  F00E         	goto	l2701
  2921   001CBA                     u1630:
  2922   001CBA  5013               	movf	lcd_4bit_send_string_data@str_data^0,w,c
  2923   001CBC  1014               	iorwf	(lcd_4bit_send_string_data@str_data+1)^0,w,c
  2924   001CBE  A4D8               	btfss	status,2,c
  2925   001CC0  EF64  F00E         	goto	u1641
  2926   001CC4  EF66  F00E         	goto	u1640
  2927   001CC8                     u1641:
  2928   001CC8  EF6A  F00E         	goto	l2703
  2929   001CCC                     u1640:
  2930   001CCC                     l2701:
  2931                           
  2932                           ;ECU/LCD/ecu_chr_lcd.c: 229:     {;ECU/LCD/ecu_chr_lcd.c: 230:         Ret = (Std_Return
      +                          Type)0X00;
  2933   001CCC  0E00               	movlw	0
  2934   001CCE  6E17               	movwf	lcd_4bit_send_string_data@Ret^0,c
  2935                           
  2936                           ;ECU/LCD/ecu_chr_lcd.c: 231:     }
  2937   001CD0  EFAD  F00E         	goto	l2711
  2938   001CD4                     l2703:
  2939                           
  2940                           ;ECU/LCD/ecu_chr_lcd.c: 234:     {;ECU/LCD/ecu_chr_lcd.c: 235:   uint8 l_counter = 0;
  2941   001CD4  0E00               	movlw	0
  2942   001CD6  6E18               	movwf	lcd_4bit_send_string_data@l_counter^0,c
  2943                           
  2944                           ;ECU/LCD/ecu_chr_lcd.c: 236:   for(l_counter =0; str_data[l_counter] != '\0'; l_counter+
      +                          +)
  2945   001CD8  0E00               	movlw	0
  2946   001CDA  6E18               	movwf	lcd_4bit_send_string_data@l_counter^0,c
  2947   001CDC  EF8E  F00E         	goto	l2709
  2948   001CE0                     l2705:
  2949                           
  2950                           ;ECU/LCD/ecu_chr_lcd.c: 237:   {;ECU/LCD/ecu_chr_lcd.c: 238:    Ret &= lcd_4bit_send_cha
      +                          r_data(lcd, str_data[l_counter]);
  2951   001CE0  C012  F00F         	movff	lcd_4bit_send_string_data@lcd,lcd_4bit_send_char_data@lcd
  2952   001CE4  5018               	movf	lcd_4bit_send_string_data@l_counter^0,w,c
  2953   001CE6  2413               	addwf	lcd_4bit_send_string_data@str_data^0,w,c
  2954   001CE8  6E15               	movwf	??_lcd_4bit_send_string_data^0,c
  2955   001CEA  0E00               	movlw	0
  2956   001CEC  2014               	addwfc	(lcd_4bit_send_string_data@str_data+1)^0,w,c
  2957   001CEE  6E16               	movwf	(??_lcd_4bit_send_string_data+1)^0,c
  2958   001CF0  C015  FFF6         	movff	??_lcd_4bit_send_string_data,tblptrl
  2959   001CF4  C016  FFF7         	movff	??_lcd_4bit_send_string_data+1,tblptrh
  2960   001CF8  0E00               	movlw	low (__smallconst shr (0+16))
  2961   001CFA  6EF8               	movwf	tblptru,c
  2962   001CFC  0E0F               	movlw	(high __ramtop+-1)
  2963   001CFE  64F7               	cpfsgt	tblptrh,c
  2964   001D00  D003               	bra	u1657
  2965   001D02  0008               	tblrd		*
  2966   001D04  50F5               	movf	tablat,w,c
  2967   001D06  D005               	bra	u1650
  2968   001D08                     u1657:
  2969   001D08  CFF6 FFE9          	movff	tblptrl,fsr0l
  2970   001D0C  CFF7 FFEA          	movff	tblptrh,fsr0h
  2971   001D10  50EF               	movf	indf0,w,c
  2972   001D12                     u1650:
  2973   001D12  6E10               	movwf	lcd_4bit_send_char_data@data^0,c
  2974   001D14  EC7A  F010         	call	_lcd_4bit_send_char_data	;wreg free
  2975   001D18  1617               	andwf	lcd_4bit_send_string_data@Ret^0,f,c
  2976   001D1A                     
  2977                           ;ECU/LCD/ecu_chr_lcd.c: 239:   }
  2978   001D1A  2A18               	incf	lcd_4bit_send_string_data@l_counter^0,f,c
  2979   001D1C                     l2709:
  2980   001D1C  5018               	movf	lcd_4bit_send_string_data@l_counter^0,w,c
  2981   001D1E  2413               	addwf	lcd_4bit_send_string_data@str_data^0,w,c
  2982   001D20  6E15               	movwf	??_lcd_4bit_send_string_data^0,c
  2983   001D22  0E00               	movlw	0
  2984   001D24  2014               	addwfc	(lcd_4bit_send_string_data@str_data+1)^0,w,c
  2985   001D26  6E16               	movwf	(??_lcd_4bit_send_string_data+1)^0,c
  2986   001D28  C015  FFF6         	movff	??_lcd_4bit_send_string_data,tblptrl
  2987   001D2C  C016  FFF7         	movff	??_lcd_4bit_send_string_data+1,tblptrh
  2988   001D30  0E00               	movlw	low (__smallconst shr (0+16))
  2989   001D32  6EF8               	movwf	tblptru,c
  2990   001D34  0E0F               	movlw	(high __ramtop+-1)
  2991   001D36  64F7               	cpfsgt	tblptrh,c
  2992   001D38  D003               	bra	u1667
  2993   001D3A  0008               	tblrd		*
  2994   001D3C  50F5               	movf	tablat,w,c
  2995   001D3E  D005               	bra	u1660
  2996   001D40                     u1667:
  2997   001D40  CFF6 FFE9          	movff	tblptrl,fsr0l
  2998   001D44  CFF7 FFEA          	movff	tblptrh,fsr0h
  2999   001D48  50EF               	movf	indf0,w,c
  3000   001D4A                     u1660:
  3001   001D4A  0900               	iorlw	0
  3002   001D4C  A4D8               	btfss	status,2,c
  3003   001D4E  EFAB  F00E         	goto	u1671
  3004   001D52  EFAD  F00E         	goto	u1670
  3005   001D56                     u1671:
  3006   001D56  EF70  F00E         	goto	l2705
  3007   001D5A                     u1670:
  3008   001D5A                     l2711:
  3009                           
  3010                           ;ECU/LCD/ecu_chr_lcd.c: 243:  return Ret;
  3011   001D5A  5017               	movf	lcd_4bit_send_string_data@Ret^0,w,c
  3012   001D5C  0012               	return		;funcret
  3013   001D5E                     __end_of_lcd_4bit_send_string_data:
  3014                           	callstack 0
  3015                           
  3016 ;; *************** function _lcd_4bit_send_char_data *****************
  3017 ;; Defined at:
  3018 ;;		line 140 in file "ECU/LCD/ecu_chr_lcd.c"
  3019 ;; Parameters:    Size  Location     Type
  3020 ;;  lcd             1   14[COMRAM] PTR const struct .
  3021 ;;		 -> lcd1(6), 
  3022 ;;  data            1   15[COMRAM] unsigned char 
  3023 ;; Auto vars:     Size  Location     Type
  3024 ;;  Ret             1   16[COMRAM] unsigned char 
  3025 ;; Return value:  Size  Location     Type
  3026 ;;                  1    wreg      unsigned char 
  3027 ;; Registers used:
  3028 ;;		wreg, fsr2l, fsr2h, status,2, status,0, prodl, prodh, cstack
  3029 ;; Tracked objects:
  3030 ;;		On entry : 0/0
  3031 ;;		On exit  : 0/0
  3032 ;;		Unchanged: 0/0
  3033 ;; Data sizes:     COMRAM   BANK0   BANK1   BANK2   BANK3   BANK4   BANK5   BANK6   BANK7   BANK8   BANK9  BANK10  BANK1
      +1  BANK12  BANK13  BANK14  BANK15
  3034 ;;      Params:         2       0       0       0       0       0       0       0       0       0       0       0       
      +0       0       0       0       0
  3035 ;;      Locals:         1       0       0       0       0       0       0       0       0       0       0       0       
      +0       0       0       0       0
  3036 ;;      Temps:          0       0       0       0       0       0       0       0       0       0       0       0       
      +0       0       0       0       0
  3037 ;;      Totals:         3       0       0       0       0       0       0       0       0       0       0       0       
      +0       0       0       0       0
  3038 ;;Total ram usage:        3 bytes
  3039 ;; Hardware stack levels used: 1
  3040 ;; Hardware stack levels required when called: 2
  3041 ;; This function calls:
  3042 ;;		_gpio_pin_write_logic
  3043 ;;		_lcd_4bit_send_enable_signal
  3044 ;;		_lcd_send_4bit
  3045 ;; This function is called by:
  3046 ;;		_lcd_4bit_send_string_data
  3047 ;;		_lcd_4bit_send_char_data_pos
  3048 ;;		_lcd_4bit_send_custome_char
  3049 ;; This function uses a non-reentrant model
  3050 ;;
  3051                           
  3052                           	psect	text17
  3053   0020F4                     __ptext17:
  3054                           	callstack 0
  3055   0020F4                     _lcd_4bit_send_char_data:
  3056                           	callstack 26
  3057   0020F4                     
  3058                           ;ECU/LCD/ecu_chr_lcd.c: 145:     if( ((void*)0) == lcd )
  3059   0020F4  500F               	movf	lcd_4bit_send_char_data@lcd^0,w,c
  3060   0020F6  A4D8               	btfss	status,2,c
  3061   0020F8  EF80  F010         	goto	u1531
  3062   0020FC  EF82  F010         	goto	u1530
  3063   002100                     u1531:
  3064   002100  EF86  F010         	goto	l2635
  3065   002104                     u1530:
  3066   002104                     
  3067                           ;ECU/LCD/ecu_chr_lcd.c: 146:     {;ECU/LCD/ecu_chr_lcd.c: 147:         Ret = (Std_Return
      +                          Type)0X00;
  3068   002104  0E00               	movlw	0
  3069   002106  6E11               	movwf	lcd_4bit_send_char_data@Ret^0,c
  3070                           
  3071                           ;ECU/LCD/ecu_chr_lcd.c: 148:     }
  3072   002108  EFA7  F010         	goto	l2637
  3073   00210C                     l2635:
  3074                           
  3075                           ;ECU/LCD/ecu_chr_lcd.c: 151:     {;ECU/LCD/ecu_chr_lcd.c: 156:   Ret = gpio_pin_write_lo
      +                          gic(&(lcd->lcd_rs), GPIO_HIGH);
  3076   00210C  500F               	movf	lcd_4bit_send_char_data@lcd^0,w,c
  3077   00210E  0F04               	addlw	4
  3078   002110  6E01               	movwf	gpio_pin_write_logic@pin_config^0,c
  3079   002112  0E01               	movlw	1
  3080   002114  6E02               	movwf	gpio_pin_write_logic@logic^0,c
  3081   002116  EC5C  F00A         	call	_gpio_pin_write_logic	;wreg free
  3082   00211A  6E11               	movwf	lcd_4bit_send_char_data@Ret^0,c
  3083                           
  3084                           ;ECU/LCD/ecu_chr_lcd.c: 159:   Ret = lcd_send_4bit(lcd, data>>4);
  3085   00211C  C00F  F009         	movff	lcd_4bit_send_char_data@lcd,lcd_send_4bit@lcd
  3086   002120  3810               	swapf	lcd_4bit_send_char_data@data^0,w,c
  3087   002122  0B0F               	andlw	15
  3088   002124  6E0A               	movwf	lcd_send_4bit@value^0,c
  3089   002126  EC4A  F010         	call	_lcd_send_4bit	;wreg free
  3090   00212A  6E11               	movwf	lcd_4bit_send_char_data@Ret^0,c
  3091                           
  3092                           ;ECU/LCD/ecu_chr_lcd.c: 162:   Ret = lcd_4bit_send_enable_signal(lcd);
  3093   00212C  C00F  F009         	movff	lcd_4bit_send_char_data@lcd,lcd_4bit_send_enable_signal@lcd
  3094   002130  EC23  F011         	call	_lcd_4bit_send_enable_signal	;wreg free
  3095   002134  6E11               	movwf	lcd_4bit_send_char_data@Ret^0,c
  3096                           
  3097                           ;ECU/LCD/ecu_chr_lcd.c: 165:   Ret = lcd_send_4bit(lcd, data);
  3098   002136  C00F  F009         	movff	lcd_4bit_send_char_data@lcd,lcd_send_4bit@lcd
  3099   00213A  C010  F00A         	movff	lcd_4bit_send_char_data@data,lcd_send_4bit@value
  3100   00213E  EC4A  F010         	call	_lcd_send_4bit	;wreg free
  3101   002142  6E11               	movwf	lcd_4bit_send_char_data@Ret^0,c
  3102                           
  3103                           ;ECU/LCD/ecu_chr_lcd.c: 168:   Ret = lcd_4bit_send_enable_signal(lcd);
  3104   002144  C00F  F009         	movff	lcd_4bit_send_char_data@lcd,lcd_4bit_send_enable_signal@lcd
  3105   002148  EC23  F011         	call	_lcd_4bit_send_enable_signal	;wreg free
  3106   00214C  6E11               	movwf	lcd_4bit_send_char_data@Ret^0,c
  3107   00214E                     l2637:
  3108                           
  3109                           ;ECU/LCD/ecu_chr_lcd.c: 172:  return Ret;
  3110   00214E  5011               	movf	lcd_4bit_send_char_data@Ret^0,w,c
  3111   002150  0012               	return		;funcret
  3112   002152                     __end_of_lcd_4bit_send_char_data:
  3113                           	callstack 0
  3114                           
  3115 ;; *************** function _keypad_get_value *****************
  3116 ;; Defined at:
  3117 ;;		line 68 in file "ECU/KEYPAD/ecu_keypad.c"
  3118 ;; Parameters:    Size  Location     Type
  3119 ;;  obj             1    8[COMRAM] PTR const struct .
  3120 ;;		 -> key1(8), 
  3121 ;;  value           1    9[COMRAM] PTR unsigned char 
  3122 ;;		 -> Check_Password@Keypad_Value(4), Set_Password@Keypad_Value(4), 
  3123 ;; Auto vars:     Size  Location     Type
  3124 ;;  cols_counter    1   15[COMRAM] unsigned char 
  3125 ;;  rows_counter    1   14[COMRAM] unsigned char 
  3126 ;;  count           1   13[COMRAM] unsigned char 
  3127 ;;  column_logic    1   12[COMRAM] enum E3232
  3128 ;;  ret             1   11[COMRAM] unsigned char 
  3129 ;; Return value:  Size  Location     Type
  3130 ;;                  1    wreg      unsigned char 
  3131 ;; Registers used:
  3132 ;;		wreg, fsr1l, fsr1h, fsr2l, fsr2h, status,2, status,0, tblptrl, tblptrh, tblptru, prodl, prodh, cstack
  3133 ;; Tracked objects:
  3134 ;;		On entry : 0/0
  3135 ;;		On exit  : 0/0
  3136 ;;		Unchanged: 0/0
  3137 ;; Data sizes:     COMRAM   BANK0   BANK1   BANK2   BANK3   BANK4   BANK5   BANK6   BANK7   BANK8   BANK9  BANK10  BANK1
      +1  BANK12  BANK13  BANK14  BANK15
  3138 ;;      Params:         2       0       0       0       0       0       0       0       0       0       0       0       
      +0       0       0       0       0
  3139 ;;      Locals:         5       0       0       0       0       0       0       0       0       0       0       0       
      +0       0       0       0       0
  3140 ;;      Temps:          1       0       0       0       0       0       0       0       0       0       0       0       
      +0       0       0       0       0
  3141 ;;      Totals:         8       0       0       0       0       0       0       0       0       0       0       0       
      +0       0       0       0       0
  3142 ;;Total ram usage:        8 bytes
  3143 ;; Hardware stack levels used: 1
  3144 ;; Hardware stack levels required when called: 1
  3145 ;; This function calls:
  3146 ;;		_gpio_pin_read_logic
  3147 ;;		_gpio_pin_write_logic
  3148 ;; This function is called by:
  3149 ;;		_Set_Password
  3150 ;;		_Check_Password
  3151 ;; This function uses a non-reentrant model
  3152 ;;
  3153                           
  3154                           	psect	text18
  3155   0017DC                     __ptext18:
  3156                           	callstack 0
  3157   0017DC                     _keypad_get_value:
  3158                           	callstack 28
  3159   0017DC                     
  3160                           ;ECU/KEYPAD/ecu_keypad.c: 72:     if( ( ((void*)0) == obj) || (((void*)0) == value))
  3161   0017DC  5009               	movf	keypad_get_value@obj^0,w,c
  3162   0017DE  B4D8               	btfsc	status,2,c
  3163   0017E0  EFF4  F00B         	goto	u1711
  3164   0017E4  EFF6  F00B         	goto	u1710
  3165   0017E8                     u1711:
  3166   0017E8  EFFE  F00B         	goto	l2751
  3167   0017EC                     u1710:
  3168   0017EC  500A               	movf	keypad_get_value@value^0,w,c
  3169   0017EE  A4D8               	btfss	status,2,c
  3170   0017F0  EFFC  F00B         	goto	u1721
  3171   0017F4  EFFE  F00B         	goto	u1720
  3172   0017F8                     u1721:
  3173   0017F8  EF02  F00C         	goto	l2753
  3174   0017FC                     u1720:
  3175   0017FC                     l2751:
  3176                           
  3177                           ;ECU/KEYPAD/ecu_keypad.c: 73:     {;ECU/KEYPAD/ecu_keypad.c: 74:         ret = (Std_Retu
      +                          rnType)0X00;
  3178   0017FC  0E00               	movlw	0
  3179   0017FE  6E0C               	movwf	keypad_get_value@ret^0,c
  3180                           
  3181                           ;ECU/KEYPAD/ecu_keypad.c: 75:     }
  3182   001800  EF61  F00C         	goto	l2795
  3183   001804                     l2753:
  3184                           
  3185                           ;ECU/KEYPAD/ecu_keypad.c: 77:     {;ECU/KEYPAD/ecu_keypad.c: 78:         uint8 rows_coun
      +                          ter = 0 , cols_counter =0;
  3186   001804  0E00               	movlw	0
  3187   001806  6E0F               	movwf	keypad_get_value@rows_counter^0,c
  3188                           
  3189                           ;ECU/KEYPAD/ecu_keypad.c: 79:         uint8 count = 0;
  3190   001808  0E00               	movlw	0
  3191   00180A  6E0E               	movwf	keypad_get_value@count^0,c
  3192                           
  3193                           ;ECU/KEYPAD/ecu_keypad.c: 80:         logic_t column_logic = GPIO_LOW;
  3194   00180C  0E00               	movlw	0
  3195   00180E  6E0D               	movwf	keypad_get_value@column_logic^0,c
  3196                           
  3197                           ;ECU/KEYPAD/ecu_keypad.c: 83:         for(rows_counter =0; rows_counter<4; rows_counter+
      +                          +)
  3198   001810  0E00               	movlw	0
  3199   001812  6E0F               	movwf	keypad_get_value@rows_counter^0,c
  3200   001814                     l2759:
  3201                           
  3202                           ;ECU/KEYPAD/ecu_keypad.c: 84:         {;ECU/KEYPAD/ecu_keypad.c: 85:             for(cou
      +                          nt =0; count<4; count++)
  3203   001814  0E00               	movlw	0
  3204   001816  6E0E               	movwf	keypad_get_value@count^0,c
  3205   001818                     l2765:
  3206   001818  5009               	movf	keypad_get_value@obj^0,w,c
  3207   00181A  240E               	addwf	keypad_get_value@count^0,w,c
  3208   00181C  6E01               	movwf	gpio_pin_write_logic@pin_config^0,c
  3209   00181E  0E00               	movlw	0
  3210   001820  6E02               	movwf	gpio_pin_write_logic@logic^0,c
  3211   001822  EC5C  F00A         	call	_gpio_pin_write_logic	;wreg free
  3212   001826                     
  3213                           ;ECU/KEYPAD/ecu_keypad.c: 88:             }
  3214   001826  2A0E               	incf	keypad_get_value@count^0,f,c
  3215   001828  0E03               	movlw	3
  3216   00182A  640E               	cpfsgt	keypad_get_value@count^0,c
  3217   00182C  EF1A  F00C         	goto	u1731
  3218   001830  EF1C  F00C         	goto	u1730
  3219   001834                     u1731:
  3220   001834  EF0C  F00C         	goto	l2765
  3221   001838                     u1730:
  3222   001838  5009               	movf	keypad_get_value@obj^0,w,c
  3223   00183A  240F               	addwf	keypad_get_value@rows_counter^0,w,c
  3224   00183C  6E01               	movwf	gpio_pin_write_logic@pin_config^0,c
  3225   00183E  0E01               	movlw	1
  3226   001840  6E02               	movwf	gpio_pin_write_logic@logic^0,c
  3227   001842  EC5C  F00A         	call	_gpio_pin_write_logic	;wreg free
  3228   001846                     
  3229                           ;ECU/KEYPAD/ecu_keypad.c: 92:             _delay((unsigned long)((10)*(8000000UL/4000.0)
      +                          ));
  3230   001846  0E1A               	movlw	26
  3231   001848  6E0B               	movwf	??_keypad_get_value^0,c
  3232   00184A  0EF8               	movlw	248
  3233   00184C                     u2497:
  3234   00184C  2EE8               	decfsz	wreg,f,c
  3235   00184E  D7FE               	bra	u2497
  3236   001850  2E0B               	decfsz	??_keypad_get_value^0,f,c
  3237   001852  D7FC               	bra	u2497
  3238   001854  F000 F000          	nop2	
  3239   001858                     
  3240                           ;ECU/KEYPAD/ecu_keypad.c: 94:             for(cols_counter =0; cols_counter<4; cols_coun
      +                          ter++)
  3241   001858  0E00               	movlw	0
  3242   00185A  6E10               	movwf	keypad_get_value@cols_counter^0,c
  3243   00185C                     l2781:
  3244                           
  3245                           ;ECU/KEYPAD/ecu_keypad.c: 95:             {;ECU/KEYPAD/ecu_keypad.c: 96:                
      +                           ret = gpio_pin_read_logic(&(obj->keypad_col_pins[cols_counter]), &column_logic);
  3246   00185C  5009               	movf	keypad_get_value@obj^0,w,c
  3247   00185E  2410               	addwf	keypad_get_value@cols_counter^0,w,c
  3248   001860  0F04               	addlw	4
  3249   001862  6E01               	movwf	gpio_pin_read_logic@pin_config^0,c
  3250   001864  0E0D               	movlw	low keypad_get_value@column_logic
  3251   001866  6E02               	movwf	gpio_pin_read_logic@logic^0,c
  3252   001868  ECF3  F00D         	call	_gpio_pin_read_logic	;wreg free
  3253   00186C  6E0C               	movwf	keypad_get_value@ret^0,c
  3254   00186E                     
  3255                           ;ECU/KEYPAD/ecu_keypad.c: 98:                 if(GPIO_HIGH == column_logic)
  3256   00186E  040D               	decf	keypad_get_value@column_logic^0,w,c
  3257   001870  A4D8               	btfss	status,2,c
  3258   001872  EF3D  F00C         	goto	u1741
  3259   001876  EF3F  F00C         	goto	u1740
  3260   00187A                     u1741:
  3261   00187A  EF4F  F00C         	goto	l2787
  3262   00187E                     u1740:
  3263   00187E                     
  3264                           ;ECU/KEYPAD/ecu_keypad.c: 99:                 {;ECU/KEYPAD/ecu_keypad.c: 100:           
      +                                    *value = btn_values[rows_counter][cols_counter];
  3265   00187E  500F               	movf	keypad_get_value@rows_counter^0,w,c
  3266   001880  0D04               	mullw	4
  3267   001882  50F3               	movf	243,w,c
  3268   001884  0F01               	addlw	low _btn_values
  3269   001886  2410               	addwf	keypad_get_value@cols_counter^0,w,c
  3270   001888  6E0B               	movwf	??_keypad_get_value^0,c
  3271   00188A  C00B  FFF6         	movff	??_keypad_get_value,tblptrl
  3272   00188E                     	if	1	;There is more than 1 active tblptr byte
  3273   00188E  0E10               	movlw	high __smallconst
  3274   001890  6EF7               	movwf	tblptrh,c
  3275   001892                     	endif
  3276   001892                     	if	0	;tblptru may be non-zero
  3277   001892                     	endif
  3278   001892                     	if	0	;tblptru may be non-zero
  3279   001892                     	endif
  3280   001892  500A               	movf	keypad_get_value@value^0,w,c
  3281   001894  6ED9               	movwf	fsr2l,c
  3282   001896  6ADA               	clrf	fsr2h,c
  3283   001898  0008               	tblrd		*
  3284   00189A  CFF5 FFDF          	movff	tablat,indf2
  3285   00189E                     l2787:
  3286                           
  3287                           ;ECU/KEYPAD/ecu_keypad.c: 102:             }
  3288   00189E  2A10               	incf	keypad_get_value@cols_counter^0,f,c
  3289   0018A0  0E03               	movlw	3
  3290   0018A2  6410               	cpfsgt	keypad_get_value@cols_counter^0,c
  3291   0018A4  EF56  F00C         	goto	u1751
  3292   0018A8  EF58  F00C         	goto	u1750
  3293   0018AC                     u1751:
  3294   0018AC  EF2E  F00C         	goto	l2781
  3295   0018B0                     u1750:
  3296   0018B0                     
  3297                           ;ECU/KEYPAD/ecu_keypad.c: 104:         }
  3298   0018B0  2A0F               	incf	keypad_get_value@rows_counter^0,f,c
  3299   0018B2  0E03               	movlw	3
  3300   0018B4  640F               	cpfsgt	keypad_get_value@rows_counter^0,c
  3301   0018B6  EF5F  F00C         	goto	u1761
  3302   0018BA  EF61  F00C         	goto	u1760
  3303   0018BE                     u1761:
  3304   0018BE  EF0A  F00C         	goto	l2759
  3305   0018C2                     u1760:
  3306   0018C2                     l2795:
  3307                           
  3308                           ;ECU/KEYPAD/ecu_keypad.c: 107:     return ret;
  3309   0018C2  500C               	movf	keypad_get_value@ret^0,w,c
  3310   0018C4  0012               	return		;funcret
  3311   0018C6                     __end_of_keypad_get_value:
  3312                           	callstack 0
  3313                           
  3314 ;; *************** function _gpio_pin_read_logic *****************
  3315 ;; Defined at:
  3316 ;;		line 162 in file "HAL/GPIO/hal_gpio.c"
  3317 ;; Parameters:    Size  Location     Type
  3318 ;;  pin_config      1    0[COMRAM] PTR const struct .
  3319 ;;		 -> key1$keypad_col_pins(4), key1(8), 
  3320 ;;  logic           1    1[COMRAM] PTR enum E3232
  3321 ;;		 -> keypad_get_value@column_logic(1), 
  3322 ;; Auto vars:     Size  Location     Type
  3323 ;;  Ret             1    6[COMRAM] unsigned char 
  3324 ;; Return value:  Size  Location     Type
  3325 ;;                  1    wreg      unsigned char 
  3326 ;; Registers used:
  3327 ;;		wreg, fsr1l, fsr1h, fsr2l, fsr2h, status,2, status,0, prodl, prodh
  3328 ;; Tracked objects:
  3329 ;;		On entry : 0/0
  3330 ;;		On exit  : 0/0
  3331 ;;		Unchanged: 0/0
  3332 ;; Data sizes:     COMRAM   BANK0   BANK1   BANK2   BANK3   BANK4   BANK5   BANK6   BANK7   BANK8   BANK9  BANK10  BANK1
      +1  BANK12  BANK13  BANK14  BANK15
  3333 ;;      Params:         2       0       0       0       0       0       0       0       0       0       0       0       
      +0       0       0       0       0
  3334 ;;      Locals:         1       0       0       0       0       0       0       0       0       0       0       0       
      +0       0       0       0       0
  3335 ;;      Temps:          4       0       0       0       0       0       0       0       0       0       0       0       
      +0       0       0       0       0
  3336 ;;      Totals:         7       0       0       0       0       0       0       0       0       0       0       0       
      +0       0       0       0       0
  3337 ;;Total ram usage:        7 bytes
  3338 ;; Hardware stack levels used: 1
  3339 ;; This function calls:
  3340 ;;		Nothing
  3341 ;; This function is called by:
  3342 ;;		_keypad_get_value
  3343 ;; This function uses a non-reentrant model
  3344 ;;
  3345                           
  3346                           	psect	text19
  3347   001BE6                     __ptext19:
  3348                           	callstack 0
  3349   001BE6                     _gpio_pin_read_logic:
  3350                           	callstack 28
  3351   001BE6                     
  3352                           ;HAL/GPIO/hal_gpio.c: 162: Std_ReturnType gpio_pin_read_logic(const pin_config_t* pin_co
      +                          nfig, logic_t* logic);HAL/GPIO/hal_gpio.c: 163: {;HAL/GPIO/hal_gpio.c: 164:     Std_Retu
      +                          rnType Ret = (Std_ReturnType)0X01;
  3353   001BE6  0E01               	movlw	1
  3354   001BE8  6E07               	movwf	gpio_pin_read_logic@Ret^0,c
  3355                           
  3356                           ;HAL/GPIO/hal_gpio.c: 166:     if((((void*)0) == pin_config) || (((void*)0) == logic) ||
      +                           (pin_config->Pin >= 8) || (pin_config->Port >= 5))
  3357   001BEA  5001               	movf	gpio_pin_read_logic@pin_config^0,w,c
  3358   001BEC  B4D8               	btfsc	status,2,c
  3359   001BEE  EFFB  F00D         	goto	u1571
  3360   001BF2  EFFD  F00D         	goto	u1570
  3361   001BF6                     u1571:
  3362   001BF6  EF23  F00E         	goto	l2663
  3363   001BFA                     u1570:
  3364   001BFA  5002               	movf	gpio_pin_read_logic@logic^0,w,c
  3365   001BFC  B4D8               	btfsc	status,2,c
  3366   001BFE  EF03  F00E         	goto	u1581
  3367   001C02  EF05  F00E         	goto	u1580
  3368   001C06                     u1581:
  3369   001C06  EF23  F00E         	goto	l2663
  3370   001C0A                     u1580:
  3371   001C0A  5001               	movf	gpio_pin_read_logic@pin_config^0,w,c
  3372   001C0C  6ED9               	movwf	fsr2l,c
  3373   001C0E  6ADA               	clrf	fsr2h,c
  3374   001C10  50DF               	movf	223,w,c
  3375   001C12  0B07               	andlw	7
  3376   001C14  6E03               	movwf	??_gpio_pin_read_logic^0,c
  3377   001C16  0E08               	movlw	8
  3378   001C18  6003               	cpfslt	??_gpio_pin_read_logic^0,c
  3379   001C1A  EF11  F00E         	goto	u1591
  3380   001C1E  EF13  F00E         	goto	u1590
  3381   001C22                     u1591:
  3382   001C22  EF23  F00E         	goto	l2663
  3383   001C26                     u1590:
  3384   001C26  5001               	movf	gpio_pin_read_logic@pin_config^0,w,c
  3385   001C28  6ED9               	movwf	fsr2l,c
  3386   001C2A  6ADA               	clrf	fsr2h,c
  3387   001C2C  30DF               	rrcf	223,w,c
  3388   001C2E  32E8               	rrcf	wreg,f,c
  3389   001C30  32E8               	rrcf	wreg,f,c
  3390   001C32  0B07               	andlw	7
  3391   001C34  6E03               	movwf	??_gpio_pin_read_logic^0,c
  3392   001C36  0E04               	movlw	4
  3393   001C38  6403               	cpfsgt	??_gpio_pin_read_logic^0,c
  3394   001C3A  EF21  F00E         	goto	u1601
  3395   001C3E  EF23  F00E         	goto	u1600
  3396   001C42                     u1601:
  3397   001C42  EF27  F00E         	goto	l2665
  3398   001C46                     u1600:
  3399   001C46                     l2663:
  3400                           
  3401                           ;HAL/GPIO/hal_gpio.c: 167:     {;HAL/GPIO/hal_gpio.c: 168:         Ret = (Std_ReturnType
      +                          )0X00;
  3402   001C46  0E00               	movlw	0
  3403   001C48  6E07               	movwf	gpio_pin_read_logic@Ret^0,c
  3404                           
  3405                           ;HAL/GPIO/hal_gpio.c: 169:     }
  3406   001C4A  EF51  F00E         	goto	l2667
  3407   001C4E                     l2665:
  3408                           
  3409                           ;HAL/GPIO/hal_gpio.c: 172:     {;HAL/GPIO/hal_gpio.c: 173:         *logic = ((*port_regi
      +                          ster[pin_config->Port] >>pin_config->Pin) & (uint8) 1);
  3410   001C4E  5002               	movf	gpio_pin_read_logic@logic^0,w,c
  3411   001C50  6ED9               	movwf	fsr2l,c
  3412   001C52  6ADA               	clrf	fsr2h,c
  3413   001C54  5001               	movf	gpio_pin_read_logic@pin_config^0,w,c
  3414   001C56  6EE1               	movwf	fsr1l,c
  3415   001C58  6AE2               	clrf	fsr1h,c
  3416   001C5A  50E7               	movf	231,w,c
  3417   001C5C  0B07               	andlw	7
  3418   001C5E  6E03               	movwf	??_gpio_pin_read_logic^0,c
  3419   001C60  5001               	movf	gpio_pin_read_logic@pin_config^0,w,c
  3420   001C62  6EE1               	movwf	fsr1l,c
  3421   001C64  6AE2               	clrf	fsr1h,c
  3422   001C66  30E7               	rrcf	231,w,c
  3423   001C68  32E8               	rrcf	wreg,f,c
  3424   001C6A  32E8               	rrcf	wreg,f,c
  3425   001C6C  0B07               	andlw	7
  3426   001C6E  0D02               	mullw	2
  3427   001C70  50F3               	movf	243,w,c
  3428   001C72  0F60               	addlw	low _port_register
  3429   001C74  6EE1               	movwf	fsr1l,c
  3430   001C76  6AE2               	clrf	fsr1h,c
  3431   001C78  CFE6 F004          	movff	postinc1,??_gpio_pin_read_logic+1
  3432   001C7C  CFE5 F005          	movff	postdec1,??_gpio_pin_read_logic+2
  3433   001C80  C004  FFE1         	movff	??_gpio_pin_read_logic+1,fsr1l
  3434   001C84  C005  FFE2         	movff	??_gpio_pin_read_logic+2,fsr1h
  3435   001C88  50E7               	movf	indf1,w,c
  3436   001C8A  6E06               	movwf	(??_gpio_pin_read_logic+3)^0,c
  3437   001C8C  2A03               	incf	??_gpio_pin_read_logic^0,f,c
  3438   001C8E  EF4B  F00E         	goto	u1614
  3439   001C92                     u1615:
  3440   001C92  90D8               	bcf	status,0,c
  3441   001C94  3206               	rrcf	(??_gpio_pin_read_logic+3)^0,f,c
  3442   001C96                     u1614:
  3443   001C96  2E03               	decfsz	??_gpio_pin_read_logic^0,f,c
  3444   001C98  EF49  F00E         	goto	u1615
  3445   001C9C  5006               	movf	(??_gpio_pin_read_logic+3)^0,w,c
  3446   001C9E  0B01               	andlw	1
  3447   001CA0  6EDF               	movwf	indf2,c
  3448   001CA2                     l2667:
  3449                           
  3450                           ;HAL/GPIO/hal_gpio.c: 178:     return Ret;
  3451   001CA2  5007               	movf	gpio_pin_read_logic@Ret^0,w,c
  3452   001CA4  0012               	return		;funcret
  3453   001CA6                     __end_of_gpio_pin_read_logic:
  3454                           	callstack 0
  3455                           
  3456 ;; *************** function ___wmul *****************
  3457 ;; Defined at:
  3458 ;;		line 15 in file "C:\Program Files\Microchip\xc8\v2.45\pic\sources\c99\common\Umul16.c"
  3459 ;; Parameters:    Size  Location     Type
  3460 ;;  multiplier      2    0[COMRAM] unsigned int 
  3461 ;;  multiplicand    2    2[COMRAM] unsigned int 
  3462 ;; Auto vars:     Size  Location     Type
  3463 ;;  product         2    4[COMRAM] unsigned int 
  3464 ;; Return value:  Size  Location     Type
  3465 ;;                  2    0[COMRAM] unsigned int 
  3466 ;; Registers used:
  3467 ;;		wreg, status,2, status,0, prodl, prodh
  3468 ;; Tracked objects:
  3469 ;;		On entry : 0/0
  3470 ;;		On exit  : 0/0
  3471 ;;		Unchanged: 0/0
  3472 ;; Data sizes:     COMRAM   BANK0   BANK1   BANK2   BANK3   BANK4   BANK5   BANK6   BANK7   BANK8   BANK9  BANK10  BANK1
      +1  BANK12  BANK13  BANK14  BANK15
  3473 ;;      Params:         4       0       0       0       0       0       0       0       0       0       0       0       
      +0       0       0       0       0
  3474 ;;      Locals:         2       0       0       0       0       0       0       0       0       0       0       0       
      +0       0       0       0       0
  3475 ;;      Temps:          0       0       0       0       0       0       0       0       0       0       0       0       
      +0       0       0       0       0
  3476 ;;      Totals:         6       0       0       0       0       0       0       0       0       0       0       0       
      +0       0       0       0       0
  3477 ;;Total ram usage:        6 bytes
  3478 ;; Hardware stack levels used: 1
  3479 ;; This function calls:
  3480 ;;		Nothing
  3481 ;; This function is called by:
  3482 ;;		_Set_Password
  3483 ;;		_Check_Password
  3484 ;; This function uses a non-reentrant model
  3485 ;;
  3486                           
  3487                           	psect	text20
  3488   00231C                     __ptext20:
  3489                           	callstack 0
  3490   00231C                     ___wmul:
  3491                           	callstack 29
  3492   00231C  5001               	movf	___wmul@multiplier^0,w,c
  3493   00231E  0203               	mulwf	___wmul@multiplicand^0,c
  3494   002320  CFF3 F005          	movff	prodl,___wmul@product
  3495   002324  CFF4 F006          	movff	prodh,___wmul@product+1
  3496   002328  5001               	movf	___wmul@multiplier^0,w,c
  3497   00232A  0204               	mulwf	(___wmul@multiplicand+1)^0,c
  3498   00232C  50F3               	movf	243,w,c
  3499   00232E  2606               	addwf	(___wmul@product+1)^0,f,c
  3500   002330  5002               	movf	(___wmul@multiplier+1)^0,w,c
  3501   002332  0203               	mulwf	___wmul@multiplicand^0,c
  3502   002334  50F3               	movf	243,w,c
  3503   002336  2606               	addwf	(___wmul@product+1)^0,f,c
  3504   002338  C005  F001         	movff	___wmul@product,?___wmul
  3505   00233C  C006  F002         	movff	___wmul@product+1,?___wmul+1
  3506   002340  0012               	return		;funcret
  3507   002342                     __end_of___wmul:
  3508                           	callstack 0
  3509                           
  3510 ;; *************** function _APP_Init *****************
  3511 ;; Defined at:
  3512 ;;		line 160 in file "main.c"
  3513 ;; Parameters:    Size  Location     Type
  3514 ;;		None
  3515 ;; Auto vars:     Size  Location     Type
  3516 ;;		None
  3517 ;; Return value:  Size  Location     Type
  3518 ;;                  1    wreg      void 
  3519 ;; Registers used:
  3520 ;;		wreg, fsr2l, fsr2h, status,2, status,0, prodl, prodh, cstack
  3521 ;; Tracked objects:
  3522 ;;		On entry : 0/0
  3523 ;;		On exit  : 0/0
  3524 ;;		Unchanged: 0/0
  3525 ;; Data sizes:     COMRAM   BANK0   BANK1   BANK2   BANK3   BANK4   BANK5   BANK6   BANK7   BANK8   BANK9  BANK10  BANK1
      +1  BANK12  BANK13  BANK14  BANK15
  3526 ;;      Params:         0       0       0       0       0       0       0       0       0       0       0       0       
      +0       0       0       0       0
  3527 ;;      Locals:         0       0       0       0       0       0       0       0       0       0       0       0       
      +0       0       0       0       0
  3528 ;;      Temps:          0       0       0       0       0       0       0       0       0       0       0       0       
      +0       0       0       0       0
  3529 ;;      Totals:         0       0       0       0       0       0       0       0       0       0       0       0       
      +0       0       0       0       0
  3530 ;;Total ram usage:        0 bytes
  3531 ;; Hardware stack levels used: 1
  3532 ;; Hardware stack levels required when called: 4
  3533 ;; This function calls:
  3534 ;;		_dc_motor_initialize
  3535 ;;		_keypad_initialize
  3536 ;;		_lcd_4bit_initialze
  3537 ;;		_led_initialize
  3538 ;; This function is called by:
  3539 ;;		_main
  3540 ;; This function uses a non-reentrant model
  3541 ;;
  3542                           
  3543                           	psect	text21
  3544   0022F2                     __ptext21:
  3545                           	callstack 0
  3546   0022F2                     _APP_Init:
  3547                           	callstack 26
  3548   0022F2                     
  3549                           ;main.c: 162:     ret = lcd_4bit_initialze(&lcd1);
  3550   0022F2  0E46               	movlw	low _lcd1
  3551   0022F4  6E12               	movwf	lcd_4bit_initialze@lcd^0,c
  3552   0022F6  EC77  F00B         	call	_lcd_4bit_initialze	;wreg free
  3553   0022FA  6E5A               	movwf	_ret^0,c
  3554                           
  3555                           ;main.c: 163:     ret = keypad_initialize(&key1);
  3556   0022FC  0E6A               	movlw	low _key1
  3557   0022FE  6E0C               	movwf	keypad_initialize@obj^0,c
  3558   002300  ECE7  F00F         	call	_keypad_initialize	;wreg free
  3559   002304  6E5A               	movwf	_ret^0,c
  3560                           
  3561                           ;main.c: 164:     ret = led_initialize(&led_1);
  3562   002306  0E5B               	movlw	low _led_1
  3563   002308  6E0C               	movwf	led_initialize@led^0,c
  3564   00230A  ECB2  F00F         	call	_led_initialize	;wreg free
  3565   00230E  6E5A               	movwf	_ret^0,c
  3566                           
  3567                           ;main.c: 165:     ret = dc_motor_initialize(&motor_1);
  3568   002310  0E4C               	movlw	low _motor_1
  3569   002312  6E0C               	movwf	dc_motor_initialize@obj^0,c
  3570   002314  EC92  F00D         	call	_dc_motor_initialize	;wreg free
  3571   002318  6E5A               	movwf	_ret^0,c
  3572   00231A  0012               	return		;funcret
  3573   00231C                     __end_of_APP_Init:
  3574                           	callstack 0
  3575                           
  3576 ;; *************** function _led_initialize *****************
  3577 ;; Defined at:
  3578 ;;		line 20 in file "ECU/LED/ecu_led.c"
  3579 ;; Parameters:    Size  Location     Type
  3580 ;;  led             1   11[COMRAM] PTR const struct .
  3581 ;;		 -> led_1(1), 
  3582 ;; Auto vars:     Size  Location     Type
  3583 ;;  pin_obj         1   14[COMRAM] struct .
  3584 ;;  ret             1   13[COMRAM] unsigned char 
  3585 ;; Return value:  Size  Location     Type
  3586 ;;                  1    wreg      unsigned char 
  3587 ;; Registers used:
  3588 ;;		wreg, fsr2l, fsr2h, status,2, status,0, prodl, prodh, cstack
  3589 ;; Tracked objects:
  3590 ;;		On entry : 0/0
  3591 ;;		On exit  : 0/0
  3592 ;;		Unchanged: 0/0
  3593 ;; Data sizes:     COMRAM   BANK0   BANK1   BANK2   BANK3   BANK4   BANK5   BANK6   BANK7   BANK8   BANK9  BANK10  BANK1
      +1  BANK12  BANK13  BANK14  BANK15
  3594 ;;      Params:         1       0       0       0       0       0       0       0       0       0       0       0       
      +0       0       0       0       0
  3595 ;;      Locals:         2       0       0       0       0       0       0       0       0       0       0       0       
      +0       0       0       0       0
  3596 ;;      Temps:          1       0       0       0       0       0       0       0       0       0       0       0       
      +0       0       0       0       0
  3597 ;;      Totals:         4       0       0       0       0       0       0       0       0       0       0       0       
      +0       0       0       0       0
  3598 ;;Total ram usage:        4 bytes
  3599 ;; Hardware stack levels used: 1
  3600 ;; Hardware stack levels required when called: 2
  3601 ;; This function calls:
  3602 ;;		_gpio_pin_initialize
  3603 ;; This function is called by:
  3604 ;;		_APP_Init
  3605 ;; This function uses a non-reentrant model
  3606 ;;
  3607                           
  3608                           	psect	text22
  3609   001F64                     __ptext22:
  3610                           	callstack 0
  3611   001F64                     _led_initialize:
  3612                           	callstack 27
  3613   001F64                     
  3614                           ;ECU/LED/ecu_led.c: 24:     if(((void*)0) == led)
  3615   001F64  500C               	movf	led_initialize@led^0,w,c
  3616   001F66  A4D8               	btfss	status,2,c
  3617   001F68  EFB8  F00F         	goto	u1861
  3618   001F6C  EFBA  F00F         	goto	u1860
  3619   001F70                     u1861:
  3620   001F70  EFBE  F00F         	goto	l2911
  3621   001F74                     u1860:
  3622   001F74                     
  3623                           ;ECU/LED/ecu_led.c: 25:     {;ECU/LED/ecu_led.c: 26:         ret = (Std_ReturnType)0X00;
  3624   001F74  0E00               	movlw	0
  3625   001F76  6E0E               	movwf	led_initialize@ret^0,c
  3626                           
  3627                           ;ECU/LED/ecu_led.c: 27:     }
  3628   001F78  EFE5  F00F         	goto	l2919
  3629   001F7C                     l2911:
  3630                           
  3631                           ;ECU/LED/ecu_led.c: 29:     {;ECU/LED/ecu_led.c: 30:         pin_config_t pin_obj;;ECU/L
      +                          ED/ecu_led.c: 31:         pin_obj.Port = led->port_name;
  3632   001F7C  500C               	movf	led_initialize@led^0,w,c
  3633   001F7E  6ED9               	movwf	fsr2l,c
  3634   001F80  6ADA               	clrf	fsr2h,c
  3635   001F82  50DF               	movf	223,w,c
  3636   001F84  0B0F               	andlw	15
  3637   001F86  6E0D               	movwf	??_led_initialize^0,c
  3638   001F88  460D               	rlncf	??_led_initialize^0,f,c
  3639   001F8A  460D               	rlncf	??_led_initialize^0,f,c
  3640   001F8C  460D               	rlncf	??_led_initialize^0,f,c
  3641   001F8E  500F               	movf	led_initialize@pin_obj^0,w,c
  3642   001F90  180D               	xorwf	??_led_initialize^0,w,c
  3643   001F92  0BC7               	andlw	-57
  3644   001F94  180D               	xorwf	??_led_initialize^0,w,c
  3645   001F96  6E0F               	movwf	led_initialize@pin_obj^0,c
  3646                           
  3647                           ;ECU/LED/ecu_led.c: 32:         pin_obj.Pin = led->pin_name;
  3648   001F98  500C               	movf	led_initialize@led^0,w,c
  3649   001F9A  6ED9               	movwf	fsr2l,c
  3650   001F9C  6ADA               	clrf	fsr2h,c
  3651   001F9E  38DF               	swapf	223,w,c
  3652   001FA0  0B07               	andlw	7
  3653   001FA2  6E0D               	movwf	??_led_initialize^0,c
  3654   001FA4  500F               	movf	led_initialize@pin_obj^0,w,c
  3655   001FA6  180D               	xorwf	??_led_initialize^0,w,c
  3656   001FA8  0BF8               	andlw	-8
  3657   001FAA  180D               	xorwf	??_led_initialize^0,w,c
  3658   001FAC  6E0F               	movwf	led_initialize@pin_obj^0,c
  3659   001FAE                     
  3660                           ;ECU/LED/ecu_led.c: 33:         pin_obj.Logic = led->led_state;
  3661   001FAE  500C               	movf	led_initialize@led^0,w,c
  3662   001FB0  6ED9               	movwf	fsr2l,c
  3663   001FB2  6ADA               	clrf	fsr2h,c
  3664   001FB4  AEDF               	btfss	indf2,7,c
  3665   001FB6  D002               	bra	u1875
  3666   001FB8  8C0F               	bsf	led_initialize@pin_obj^0,6,c
  3667   001FBA  D001               	bra	u1877
  3668   001FBC                     u1875:
  3669   001FBC  9C0F               	bcf	led_initialize@pin_obj^0,6,c
  3670   001FBE                     u1877:
  3671   001FBE                     
  3672                           ;ECU/LED/ecu_led.c: 34:         pin_obj.Direction = GPIO_OUTPUT;
  3673   001FBE  9E0F               	bcf	led_initialize@pin_obj^0,7,c
  3674   001FC0                     
  3675                           ;ECU/LED/ecu_led.c: 36:         ret = gpio_pin_initialize(&pin_obj);
  3676   001FC0  0E0F               	movlw	low led_initialize@pin_obj
  3677   001FC2  6E09               	movwf	gpio_pin_initialize@pin_config^0,c
  3678   001FC4  EC07  F00F         	call	_gpio_pin_initialize	;wreg free
  3679   001FC8  6E0E               	movwf	led_initialize@ret^0,c
  3680   001FCA                     l2919:
  3681                           
  3682                           ;ECU/LED/ecu_led.c: 39:     return ret;
  3683   001FCA  500E               	movf	led_initialize@ret^0,w,c
  3684   001FCC  0012               	return		;funcret
  3685   001FCE                     __end_of_led_initialize:
  3686                           	callstack 0
  3687                           
  3688 ;; *************** function _lcd_4bit_initialze *****************
  3689 ;; Defined at:
  3690 ;;		line 32 in file "ECU/LCD/ecu_chr_lcd.c"
  3691 ;; Parameters:    Size  Location     Type
  3692 ;;  lcd             1   17[COMRAM] PTR const struct .
  3693 ;;		 -> lcd1(6), 
  3694 ;; Auto vars:     Size  Location     Type
  3695 ;;  Ret             1   20[COMRAM] unsigned char 
  3696 ;;  l_counter       1   19[COMRAM] unsigned char 
  3697 ;; Return value:  Size  Location     Type
  3698 ;;                  1    wreg      unsigned char 
  3699 ;; Registers used:
  3700 ;;		wreg, fsr2l, fsr2h, status,2, status,0, prodl, prodh, cstack
  3701 ;; Tracked objects:
  3702 ;;		On entry : 0/0
  3703 ;;		On exit  : 0/0
  3704 ;;		Unchanged: 0/0
  3705 ;; Data sizes:     COMRAM   BANK0   BANK1   BANK2   BANK3   BANK4   BANK5   BANK6   BANK7   BANK8   BANK9  BANK10  BANK1
      +1  BANK12  BANK13  BANK14  BANK15
  3706 ;;      Params:         1       0       0       0       0       0       0       0       0       0       0       0       
      +0       0       0       0       0
  3707 ;;      Locals:         2       0       0       0       0       0       0       0       0       0       0       0       
      +0       0       0       0       0
  3708 ;;      Temps:          1       0       0       0       0       0       0       0       0       0       0       0       
      +0       0       0       0       0
  3709 ;;      Totals:         4       0       0       0       0       0       0       0       0       0       0       0       
      +0       0       0       0       0
  3710 ;;Total ram usage:        4 bytes
  3711 ;; Hardware stack levels used: 1
  3712 ;; Hardware stack levels required when called: 3
  3713 ;; This function calls:
  3714 ;;		_gpio_pin_initialize
  3715 ;;		_lcd_4bit_send_command
  3716 ;; This function is called by:
  3717 ;;		_APP_Init
  3718 ;; This function uses a non-reentrant model
  3719 ;;
  3720                           
  3721                           	psect	text23
  3722   0016EE                     __ptext23:
  3723                           	callstack 0
  3724   0016EE                     _lcd_4bit_initialze:
  3725                           	callstack 26
  3726   0016EE                     
  3727                           ;ECU/LCD/ecu_chr_lcd.c: 35:     uint8 l_counter = 0;
  3728   0016EE  0E00               	movlw	0
  3729   0016F0  6E14               	movwf	lcd_4bit_initialze@l_counter^0,c
  3730                           
  3731                           ;ECU/LCD/ecu_chr_lcd.c: 37:     if( ((void*)0) == lcd )
  3732   0016F2  5012               	movf	lcd_4bit_initialze@lcd^0,w,c
  3733   0016F4  A4D8               	btfss	status,2,c
  3734   0016F6  EF7F  F00B         	goto	u1771
  3735   0016FA  EF81  F00B         	goto	u1770
  3736   0016FE                     u1771:
  3737   0016FE  EF85  F00B         	goto	l2803
  3738   001702                     u1770:
  3739   001702                     
  3740                           ;ECU/LCD/ecu_chr_lcd.c: 38:     {;ECU/LCD/ecu_chr_lcd.c: 39:         Ret = (Std_ReturnTy
      +                          pe)0X00;
  3741   001702  0E00               	movlw	0
  3742   001704  6E15               	movwf	lcd_4bit_initialze@Ret^0,c
  3743                           
  3744                           ;ECU/LCD/ecu_chr_lcd.c: 40:     }
  3745   001706  EFEC  F00B         	goto	l2839
  3746   00170A                     l2803:
  3747                           
  3748                           ;ECU/LCD/ecu_chr_lcd.c: 43:     {;ECU/LCD/ecu_chr_lcd.c: 45:         Ret = gpio_pin_init
      +                          ialize(&(lcd->lcd_rs));
  3749   00170A  5012               	movf	lcd_4bit_initialze@lcd^0,w,c
  3750   00170C  0F04               	addlw	4
  3751   00170E  6E09               	movwf	gpio_pin_initialize@pin_config^0,c
  3752   001710  EC07  F00F         	call	_gpio_pin_initialize	;wreg free
  3753   001714  6E15               	movwf	lcd_4bit_initialze@Ret^0,c
  3754                           
  3755                           ;ECU/LCD/ecu_chr_lcd.c: 46:         Ret = gpio_pin_initialize(&(lcd->lcd_en));
  3756   001716  5012               	movf	lcd_4bit_initialze@lcd^0,w,c
  3757   001718  0F05               	addlw	5
  3758   00171A  6E09               	movwf	gpio_pin_initialize@pin_config^0,c
  3759   00171C  EC07  F00F         	call	_gpio_pin_initialize	;wreg free
  3760   001720  6E15               	movwf	lcd_4bit_initialze@Ret^0,c
  3761   001722                     
  3762                           ;ECU/LCD/ecu_chr_lcd.c: 48:         for(l_counter = 0; l_counter< 4; l_counter++)
  3763   001722  0E00               	movlw	0
  3764   001724  6E14               	movwf	lcd_4bit_initialze@l_counter^0,c
  3765   001726                     l2811:
  3766   001726  5012               	movf	lcd_4bit_initialze@lcd^0,w,c
  3767   001728  2414               	addwf	lcd_4bit_initialze@l_counter^0,w,c
  3768   00172A  6E09               	movwf	gpio_pin_initialize@pin_config^0,c
  3769   00172C  EC07  F00F         	call	_gpio_pin_initialize	;wreg free
  3770   001730                     
  3771                           ;ECU/LCD/ecu_chr_lcd.c: 51:         }
  3772   001730  2A14               	incf	lcd_4bit_initialze@l_counter^0,f,c
  3773   001732  0E03               	movlw	3
  3774   001734  6414               	cpfsgt	lcd_4bit_initialze@l_counter^0,c
  3775   001736  EF9F  F00B         	goto	u1781
  3776   00173A  EFA1  F00B         	goto	u1780
  3777   00173E                     u1781:
  3778   00173E  EF93  F00B         	goto	l2811
  3779   001742                     u1780:
  3780   001742                     
  3781                           ;ECU/LCD/ecu_chr_lcd.c: 53:   _delay((unsigned long)((15)*(8000000UL/4000.0)));
  3782   001742  0E27               	movlw	39
  3783   001744  6E13               	movwf	??_lcd_4bit_initialze^0,c
  3784   001746  0EF5               	movlw	245
  3785   001748                     u2507:
  3786   001748  2EE8               	decfsz	wreg,f,c
  3787   00174A  D7FE               	bra	u2507
  3788   00174C  2E13               	decfsz	??_lcd_4bit_initialze^0,f,c
  3789   00174E  D7FC               	bra	u2507
  3790   001750  0000               	nop	
  3791   001752  C012  F00F         	movff	lcd_4bit_initialze@lcd,lcd_4bit_send_command@lcd
  3792   001756  0E38               	movlw	56
  3793   001758  6E10               	movwf	lcd_4bit_send_command@command^0,c
  3794   00175A  ECA9  F010         	call	_lcd_4bit_send_command	;wreg free
  3795   00175E                     
  3796                           ;ECU/LCD/ecu_chr_lcd.c: 57:         _delay((unsigned long)((5)*(8000000UL/4000.0)));
  3797   00175E  0E0D               	movlw	13
  3798   001760  6E13               	movwf	??_lcd_4bit_initialze^0,c
  3799   001762  0EFC               	movlw	252
  3800   001764                     u2517:
  3801   001764  2EE8               	decfsz	wreg,f,c
  3802   001766  D7FE               	bra	u2517
  3803   001768  2E13               	decfsz	??_lcd_4bit_initialze^0,f,c
  3804   00176A  D7FC               	bra	u2517
  3805   00176C  C012  F00F         	movff	lcd_4bit_initialze@lcd,lcd_4bit_send_command@lcd
  3806   001770  0E38               	movlw	56
  3807   001772  6E10               	movwf	lcd_4bit_send_command@command^0,c
  3808   001774  ECA9  F010         	call	_lcd_4bit_send_command	;wreg free
  3809   001778                     
  3810                           ;ECU/LCD/ecu_chr_lcd.c: 61:         _delay((unsigned long)((100)*(8000000UL/4000000.0)))
      +                          ;
  3811   001778  0E42               	movlw	66
  3812   00177A                     u2527:
  3813   00177A  2EE8               	decfsz	wreg,f,c
  3814   00177C  D7FE               	bra	u2527
  3815   00177E  F000 F000          	nop2	
  3816   001782  C012  F00F         	movff	lcd_4bit_initialze@lcd,lcd_4bit_send_command@lcd
  3817   001786  0E38               	movlw	56
  3818   001788  6E10               	movwf	lcd_4bit_send_command@command^0,c
  3819   00178A  ECA9  F010         	call	_lcd_4bit_send_command	;wreg free
  3820   00178E  C012  F00F         	movff	lcd_4bit_initialze@lcd,lcd_4bit_send_command@lcd
  3821   001792  0E01               	movlw	1
  3822   001794  6E10               	movwf	lcd_4bit_send_command@command^0,c
  3823   001796  ECA9  F010         	call	_lcd_4bit_send_command	;wreg free
  3824   00179A  C012  F00F         	movff	lcd_4bit_initialze@lcd,lcd_4bit_send_command@lcd
  3825   00179E  0E02               	movlw	2
  3826   0017A0  6E10               	movwf	lcd_4bit_send_command@command^0,c
  3827   0017A2  ECA9  F010         	call	_lcd_4bit_send_command	;wreg free
  3828   0017A6  C012  F00F         	movff	lcd_4bit_initialze@lcd,lcd_4bit_send_command@lcd
  3829   0017AA  0E06               	movlw	6
  3830   0017AC  6E10               	movwf	lcd_4bit_send_command@command^0,c
  3831   0017AE  ECA9  F010         	call	_lcd_4bit_send_command	;wreg free
  3832   0017B2  C012  F00F         	movff	lcd_4bit_initialze@lcd,lcd_4bit_send_command@lcd
  3833   0017B6  0E0C               	movlw	12
  3834   0017B8  6E10               	movwf	lcd_4bit_send_command@command^0,c
  3835   0017BA  ECA9  F010         	call	_lcd_4bit_send_command	;wreg free
  3836   0017BE  C012  F00F         	movff	lcd_4bit_initialze@lcd,lcd_4bit_send_command@lcd
  3837   0017C2  0E28               	movlw	40
  3838   0017C4  6E10               	movwf	lcd_4bit_send_command@command^0,c
  3839   0017C6  ECA9  F010         	call	_lcd_4bit_send_command	;wreg free
  3840   0017CA                     
  3841                           ;ECU/LCD/ecu_chr_lcd.c: 75:         Ret = lcd_4bit_send_command(lcd, 0X80);
  3842   0017CA  C012  F00F         	movff	lcd_4bit_initialze@lcd,lcd_4bit_send_command@lcd
  3843   0017CE  0E80               	movlw	128
  3844   0017D0  6E10               	movwf	lcd_4bit_send_command@command^0,c
  3845   0017D2  ECA9  F010         	call	_lcd_4bit_send_command	;wreg free
  3846   0017D6  6E15               	movwf	lcd_4bit_initialze@Ret^0,c
  3847   0017D8                     l2839:
  3848                           
  3849                           ;ECU/LCD/ecu_chr_lcd.c: 78:  return Ret;
  3850   0017D8  5015               	movf	lcd_4bit_initialze@Ret^0,w,c
  3851   0017DA  0012               	return		;funcret
  3852   0017DC                     __end_of_lcd_4bit_initialze:
  3853                           	callstack 0
  3854                           
  3855 ;; *************** function _lcd_4bit_send_command *****************
  3856 ;; Defined at:
  3857 ;;		line 91 in file "ECU/LCD/ecu_chr_lcd.c"
  3858 ;; Parameters:    Size  Location     Type
  3859 ;;  lcd             1   14[COMRAM] PTR const struct .
  3860 ;;		 -> lcd1(6), 
  3861 ;;  command         1   15[COMRAM] unsigned char 
  3862 ;; Auto vars:     Size  Location     Type
  3863 ;;  Ret             1   16[COMRAM] unsigned char 
  3864 ;; Return value:  Size  Location     Type
  3865 ;;                  1    wreg      unsigned char 
  3866 ;; Registers used:
  3867 ;;		wreg, fsr2l, fsr2h, status,2, status,0, prodl, prodh, cstack
  3868 ;; Tracked objects:
  3869 ;;		On entry : 0/0
  3870 ;;		On exit  : 0/0
  3871 ;;		Unchanged: 0/0
  3872 ;; Data sizes:     COMRAM   BANK0   BANK1   BANK2   BANK3   BANK4   BANK5   BANK6   BANK7   BANK8   BANK9  BANK10  BANK1
      +1  BANK12  BANK13  BANK14  BANK15
  3873 ;;      Params:         2       0       0       0       0       0       0       0       0       0       0       0       
      +0       0       0       0       0
  3874 ;;      Locals:         1       0       0       0       0       0       0       0       0       0       0       0       
      +0       0       0       0       0
  3875 ;;      Temps:          0       0       0       0       0       0       0       0       0       0       0       0       
      +0       0       0       0       0
  3876 ;;      Totals:         3       0       0       0       0       0       0       0       0       0       0       0       
      +0       0       0       0       0
  3877 ;;Total ram usage:        3 bytes
  3878 ;; Hardware stack levels used: 1
  3879 ;; Hardware stack levels required when called: 2
  3880 ;; This function calls:
  3881 ;;		_gpio_pin_write_logic
  3882 ;;		_lcd_4bit_send_enable_signal
  3883 ;;		_lcd_send_4bit
  3884 ;; This function is called by:
  3885 ;;		_lcd_4bit_initialze
  3886 ;;		_lcd_4bit_set_cursor
  3887 ;;		_main
  3888 ;;		_Welcom
  3889 ;;		_Set_Password
  3890 ;;		_Check_Password
  3891 ;;		_lcd_4bit_send_custome_char
  3892 ;; This function uses a non-reentrant model
  3893 ;;
  3894                           
  3895                           	psect	text24
  3896   002152                     __ptext24:
  3897                           	callstack 0
  3898   002152                     _lcd_4bit_send_command:
  3899                           	callstack 26
  3900   002152                     
  3901                           ;ECU/LCD/ecu_chr_lcd.c: 96:     if( ((void*)0) == lcd )
  3902   002152  500F               	movf	lcd_4bit_send_command@lcd^0,w,c
  3903   002154  A4D8               	btfss	status,2,c
  3904   002156  EFAF  F010         	goto	u1521
  3905   00215A  EFB1  F010         	goto	u1520
  3906   00215E                     u1521:
  3907   00215E  EFB5  F010         	goto	l2625
  3908   002162                     u1520:
  3909   002162                     
  3910                           ;ECU/LCD/ecu_chr_lcd.c: 97:     {;ECU/LCD/ecu_chr_lcd.c: 98:         Ret = (Std_ReturnTy
      +                          pe)0X00;
  3911   002162  0E00               	movlw	0
  3912   002164  6E11               	movwf	lcd_4bit_send_command@Ret^0,c
  3913                           
  3914                           ;ECU/LCD/ecu_chr_lcd.c: 99:     }
  3915   002166  EFD6  F010         	goto	l2627
  3916   00216A                     l2625:
  3917                           
  3918                           ;ECU/LCD/ecu_chr_lcd.c: 102:     {;ECU/LCD/ecu_chr_lcd.c: 108:   Ret = gpio_pin_write_lo
      +                          gic(&(lcd->lcd_rs), GPIO_LOW);
  3919   00216A  500F               	movf	lcd_4bit_send_command@lcd^0,w,c
  3920   00216C  0F04               	addlw	4
  3921   00216E  6E01               	movwf	gpio_pin_write_logic@pin_config^0,c
  3922   002170  0E00               	movlw	0
  3923   002172  6E02               	movwf	gpio_pin_write_logic@logic^0,c
  3924   002174  EC5C  F00A         	call	_gpio_pin_write_logic	;wreg free
  3925   002178  6E11               	movwf	lcd_4bit_send_command@Ret^0,c
  3926                           
  3927                           ;ECU/LCD/ecu_chr_lcd.c: 111:   Ret = lcd_send_4bit(lcd, command>>4);
  3928   00217A  C00F  F009         	movff	lcd_4bit_send_command@lcd,lcd_send_4bit@lcd
  3929   00217E  3810               	swapf	lcd_4bit_send_command@command^0,w,c
  3930   002180  0B0F               	andlw	15
  3931   002182  6E0A               	movwf	lcd_send_4bit@value^0,c
  3932   002184  EC4A  F010         	call	_lcd_send_4bit	;wreg free
  3933   002188  6E11               	movwf	lcd_4bit_send_command@Ret^0,c
  3934                           
  3935                           ;ECU/LCD/ecu_chr_lcd.c: 114:   Ret = lcd_4bit_send_enable_signal(lcd);
  3936   00218A  C00F  F009         	movff	lcd_4bit_send_command@lcd,lcd_4bit_send_enable_signal@lcd
  3937   00218E  EC23  F011         	call	_lcd_4bit_send_enable_signal	;wreg free
  3938   002192  6E11               	movwf	lcd_4bit_send_command@Ret^0,c
  3939                           
  3940                           ;ECU/LCD/ecu_chr_lcd.c: 117:   Ret = lcd_send_4bit(lcd, command);
  3941   002194  C00F  F009         	movff	lcd_4bit_send_command@lcd,lcd_send_4bit@lcd
  3942   002198  C010  F00A         	movff	lcd_4bit_send_command@command,lcd_send_4bit@value
  3943   00219C  EC4A  F010         	call	_lcd_send_4bit	;wreg free
  3944   0021A0  6E11               	movwf	lcd_4bit_send_command@Ret^0,c
  3945                           
  3946                           ;ECU/LCD/ecu_chr_lcd.c: 120:   Ret = lcd_4bit_send_enable_signal(lcd);
  3947   0021A2  C00F  F009         	movff	lcd_4bit_send_command@lcd,lcd_4bit_send_enable_signal@lcd
  3948   0021A6  EC23  F011         	call	_lcd_4bit_send_enable_signal	;wreg free
  3949   0021AA  6E11               	movwf	lcd_4bit_send_command@Ret^0,c
  3950   0021AC                     l2627:
  3951                           
  3952                           ;ECU/LCD/ecu_chr_lcd.c: 124:  return Ret;
  3953   0021AC  5011               	movf	lcd_4bit_send_command@Ret^0,w,c
  3954   0021AE  0012               	return		;funcret
  3955   0021B0                     __end_of_lcd_4bit_send_command:
  3956                           	callstack 0
  3957                           
  3958 ;; *************** function _lcd_send_4bit *****************
  3959 ;; Defined at:
  3960 ;;		line 844 in file "ECU/LCD/ecu_chr_lcd.c"
  3961 ;; Parameters:    Size  Location     Type
  3962 ;;  lcd             1    8[COMRAM] PTR const struct .
  3963 ;;		 -> lcd1(6), 
  3964 ;;  value           1    9[COMRAM] unsigned char 
  3965 ;; Auto vars:     Size  Location     Type
  3966 ;;  l_counter       1   13[COMRAM] unsigned char 
  3967 ;;  Ret             1   12[COMRAM] unsigned char 
  3968 ;; Return value:  Size  Location     Type
  3969 ;;                  1    wreg      unsigned char 
  3970 ;; Registers used:
  3971 ;;		wreg, fsr2l, fsr2h, status,2, status,0, prodl, prodh, cstack
  3972 ;; Tracked objects:
  3973 ;;		On entry : 0/0
  3974 ;;		On exit  : 0/0
  3975 ;;		Unchanged: 0/0
  3976 ;; Data sizes:     COMRAM   BANK0   BANK1   BANK2   BANK3   BANK4   BANK5   BANK6   BANK7   BANK8   BANK9  BANK10  BANK1
      +1  BANK12  BANK13  BANK14  BANK15
  3977 ;;      Params:         2       0       0       0       0       0       0       0       0       0       0       0       
      +0       0       0       0       0
  3978 ;;      Locals:         2       0       0       0       0       0       0       0       0       0       0       0       
      +0       0       0       0       0
  3979 ;;      Temps:          2       0       0       0       0       0       0       0       0       0       0       0       
      +0       0       0       0       0
  3980 ;;      Totals:         6       0       0       0       0       0       0       0       0       0       0       0       
      +0       0       0       0       0
  3981 ;;Total ram usage:        6 bytes
  3982 ;; Hardware stack levels used: 1
  3983 ;; Hardware stack levels required when called: 1
  3984 ;; This function calls:
  3985 ;;		_gpio_pin_write_logic
  3986 ;; This function is called by:
  3987 ;;		_lcd_4bit_send_command
  3988 ;;		_lcd_4bit_send_char_data
  3989 ;; This function uses a non-reentrant model
  3990 ;;
  3991                           
  3992                           	psect	text25
  3993   002094                     __ptext25:
  3994                           	callstack 0
  3995   002094                     _lcd_send_4bit:
  3996                           	callstack 26
  3997   002094                     
  3998                           ;ECU/LCD/ecu_chr_lcd.c: 844: static Std_ReturnType lcd_send_4bit(const chr_lcd_4bit_t* l
      +                          cd, uint8 value);ECU/LCD/ecu_chr_lcd.c: 845: {;ECU/LCD/ecu_chr_lcd.c: 847:  Std_ReturnTy
      +                          pe Ret = (Std_ReturnType)0X01;
  3999   002094  0E01               	movlw	1
  4000   002096  6E0D               	movwf	lcd_send_4bit@Ret^0,c
  4001                           
  4002                           ;ECU/LCD/ecu_chr_lcd.c: 850:     if( ((void*)0) == lcd )
  4003   002098  5009               	movf	lcd_send_4bit@lcd^0,w,c
  4004   00209A  A4D8               	btfss	status,2,c
  4005   00209C  EF52  F010         	goto	u1411
  4006   0020A0  EF54  F010         	goto	u1410
  4007   0020A4                     u1411:
  4008   0020A4  EF58  F010         	goto	l2567
  4009   0020A8                     u1410:
  4010   0020A8                     
  4011                           ;ECU/LCD/ecu_chr_lcd.c: 851:     {;ECU/LCD/ecu_chr_lcd.c: 852:         Ret = (Std_Return
      +                          Type)0X00;
  4012   0020A8  0E00               	movlw	0
  4013   0020AA  6E0D               	movwf	lcd_send_4bit@Ret^0,c
  4014                           
  4015                           ;ECU/LCD/ecu_chr_lcd.c: 853:     }
  4016   0020AC  EF78  F010         	goto	l2579
  4017   0020B0                     l2567:
  4018                           
  4019                           ;ECU/LCD/ecu_chr_lcd.c: 856:     {;ECU/LCD/ecu_chr_lcd.c: 857:         for(l_counter = 0
      +                          ; l_counter< 4; l_counter++)
  4020   0020B0  0E00               	movlw	0
  4021   0020B2  6E0E               	movwf	lcd_send_4bit@l_counter^0,c
  4022   0020B4                     l2573:
  4023                           
  4024                           ;ECU/LCD/ecu_chr_lcd.c: 858:         {;ECU/LCD/ecu_chr_lcd.c: 859:             Ret &= gp
      +                          io_pin_write_logic( &(lcd->lcd_data[l_counter]), (uint8)(value >> l_counter) & 0x01);
  4025   0020B4  5009               	movf	lcd_send_4bit@lcd^0,w,c
  4026   0020B6  240E               	addwf	lcd_send_4bit@l_counter^0,w,c
  4027   0020B8  6E01               	movwf	gpio_pin_write_logic@pin_config^0,c
  4028   0020BA  C00E  F00B         	movff	lcd_send_4bit@l_counter,??_lcd_send_4bit
  4029   0020BE  C00A  F00C         	movff	lcd_send_4bit@value,??_lcd_send_4bit+1
  4030   0020C2  2A0B               	incf	??_lcd_send_4bit^0,f,c
  4031   0020C4  EF66  F010         	goto	u1424
  4032   0020C8                     u1425:
  4033   0020C8  90D8               	bcf	status,0,c
  4034   0020CA  320C               	rrcf	(??_lcd_send_4bit+1)^0,f,c
  4035   0020CC                     u1424:
  4036   0020CC  2E0B               	decfsz	??_lcd_send_4bit^0,f,c
  4037   0020CE  EF64  F010         	goto	u1425
  4038   0020D2  500C               	movf	(??_lcd_send_4bit+1)^0,w,c
  4039   0020D4  0B01               	andlw	1
  4040   0020D6  6E02               	movwf	gpio_pin_write_logic@logic^0,c
  4041   0020D8  EC5C  F00A         	call	_gpio_pin_write_logic	;wreg free
  4042   0020DC  160D               	andwf	lcd_send_4bit@Ret^0,f,c
  4043   0020DE                     
  4044                           ;ECU/LCD/ecu_chr_lcd.c: 860:         }
  4045   0020DE  2A0E               	incf	lcd_send_4bit@l_counter^0,f,c
  4046   0020E0  0E03               	movlw	3
  4047   0020E2  640E               	cpfsgt	lcd_send_4bit@l_counter^0,c
  4048   0020E4  EF76  F010         	goto	u1431
  4049   0020E8  EF78  F010         	goto	u1430
  4050   0020EC                     u1431:
  4051   0020EC  EF5A  F010         	goto	l2573
  4052   0020F0                     u1430:
  4053   0020F0                     l2579:
  4054                           
  4055                           ;ECU/LCD/ecu_chr_lcd.c: 865:  return Ret;
  4056   0020F0  500D               	movf	lcd_send_4bit@Ret^0,w,c
  4057   0020F2  0012               	return		;funcret
  4058   0020F4                     __end_of_lcd_send_4bit:
  4059                           	callstack 0
  4060                           
  4061 ;; *************** function _lcd_4bit_send_enable_signal *****************
  4062 ;; Defined at:
  4063 ;;		line 878 in file "ECU/LCD/ecu_chr_lcd.c"
  4064 ;; Parameters:    Size  Location     Type
  4065 ;;  lcd             1    8[COMRAM] PTR const struct .
  4066 ;;		 -> lcd1(6), 
  4067 ;; Auto vars:     Size  Location     Type
  4068 ;;  Ret             1    9[COMRAM] unsigned char 
  4069 ;; Return value:  Size  Location     Type
  4070 ;;                  1    wreg      unsigned char 
  4071 ;; Registers used:
  4072 ;;		wreg, fsr2l, fsr2h, status,2, status,0, prodl, prodh, cstack
  4073 ;; Tracked objects:
  4074 ;;		On entry : 0/0
  4075 ;;		On exit  : 0/0
  4076 ;;		Unchanged: 0/0
  4077 ;; Data sizes:     COMRAM   BANK0   BANK1   BANK2   BANK3   BANK4   BANK5   BANK6   BANK7   BANK8   BANK9  BANK10  BANK1
      +1  BANK12  BANK13  BANK14  BANK15
  4078 ;;      Params:         1       0       0       0       0       0       0       0       0       0       0       0       
      +0       0       0       0       0
  4079 ;;      Locals:         1       0       0       0       0       0       0       0       0       0       0       0       
      +0       0       0       0       0
  4080 ;;      Temps:          0       0       0       0       0       0       0       0       0       0       0       0       
      +0       0       0       0       0
  4081 ;;      Totals:         2       0       0       0       0       0       0       0       0       0       0       0       
      +0       0       0       0       0
  4082 ;;Total ram usage:        2 bytes
  4083 ;; Hardware stack levels used: 1
  4084 ;; Hardware stack levels required when called: 1
  4085 ;; This function calls:
  4086 ;;		_gpio_pin_write_logic
  4087 ;; This function is called by:
  4088 ;;		_lcd_4bit_send_command
  4089 ;;		_lcd_4bit_send_char_data
  4090 ;; This function uses a non-reentrant model
  4091 ;;
  4092                           
  4093                           	psect	text26
  4094   002246                     __ptext26:
  4095                           	callstack 0
  4096   002246                     _lcd_4bit_send_enable_signal:
  4097                           	callstack 26
  4098   002246                     
  4099                           ;ECU/LCD/ecu_chr_lcd.c: 884:     if( ((void*)0) == lcd )
  4100   002246  5009               	movf	lcd_4bit_send_enable_signal@lcd^0,w,c
  4101   002248  A4D8               	btfss	status,2,c
  4102   00224A  EF29  F011         	goto	u1441
  4103   00224E  EF2B  F011         	goto	u1440
  4104   002252                     u1441:
  4105   002252  EF2F  F011         	goto	l2587
  4106   002256                     u1440:
  4107   002256                     
  4108                           ;ECU/LCD/ecu_chr_lcd.c: 885:     {;ECU/LCD/ecu_chr_lcd.c: 886:         Ret = (Std_Return
      +                          Type)0X00;
  4109   002256  0E00               	movlw	0
  4110   002258  6E0A               	movwf	lcd_4bit_send_enable_signal@Ret^0,c
  4111                           
  4112                           ;ECU/LCD/ecu_chr_lcd.c: 887:     }
  4113   00225A  EF42  F011         	goto	l2593
  4114   00225E                     l2587:
  4115   00225E  5009               	movf	lcd_4bit_send_enable_signal@lcd^0,w,c
  4116   002260  0F05               	addlw	5
  4117   002262  6E01               	movwf	gpio_pin_write_logic@pin_config^0,c
  4118   002264  0E01               	movlw	1
  4119   002266  6E02               	movwf	gpio_pin_write_logic@logic^0,c
  4120   002268  EC5C  F00A         	call	_gpio_pin_write_logic	;wreg free
  4121   00226C                     
  4122                           ;ECU/LCD/ecu_chr_lcd.c: 893:         _delay((unsigned long)((5)*(8000000UL/4000000.0)));
  4123   00226C  0E03               	movlw	3
  4124   00226E                     u2537:
  4125   00226E  2EE8               	decfsz	wreg,f,c
  4126   002270  D7FE               	bra	u2537
  4127   002272  0000               	nop	
  4128   002274                     
  4129                           ;ECU/LCD/ecu_chr_lcd.c: 895:         Ret = gpio_pin_write_logic( &(lcd->lcd_en), GPIO_LO
      +                          W);
  4130   002274  5009               	movf	lcd_4bit_send_enable_signal@lcd^0,w,c
  4131   002276  0F05               	addlw	5
  4132   002278  6E01               	movwf	gpio_pin_write_logic@pin_config^0,c
  4133   00227A  0E00               	movlw	0
  4134   00227C  6E02               	movwf	gpio_pin_write_logic@logic^0,c
  4135   00227E  EC5C  F00A         	call	_gpio_pin_write_logic	;wreg free
  4136   002282  6E0A               	movwf	lcd_4bit_send_enable_signal@Ret^0,c
  4137   002284                     l2593:
  4138                           
  4139                           ;ECU/LCD/ecu_chr_lcd.c: 900:  return Ret;
  4140   002284  500A               	movf	lcd_4bit_send_enable_signal@Ret^0,w,c
  4141   002286  0012               	return		;funcret
  4142   002288                     __end_of_lcd_4bit_send_enable_signal:
  4143                           	callstack 0
  4144                           
  4145 ;; *************** function _keypad_initialize *****************
  4146 ;; Defined at:
  4147 ;;		line 30 in file "ECU/KEYPAD/ecu_keypad.c"
  4148 ;; Parameters:    Size  Location     Type
  4149 ;;  obj             1   11[COMRAM] PTR const struct .
  4150 ;;		 -> key1(8), 
  4151 ;; Auto vars:     Size  Location     Type
  4152 ;;  num_col         1   14[COMRAM] unsigned char 
  4153 ;;  num_row         1   13[COMRAM] unsigned char 
  4154 ;;  ret             1   12[COMRAM] unsigned char 
  4155 ;; Return value:  Size  Location     Type
  4156 ;;                  1    wreg      unsigned char 
  4157 ;; Registers used:
  4158 ;;		wreg, fsr2l, fsr2h, status,2, status,0, prodl, prodh, cstack
  4159 ;; Tracked objects:
  4160 ;;		On entry : 0/0
  4161 ;;		On exit  : 0/0
  4162 ;;		Unchanged: 0/0
  4163 ;; Data sizes:     COMRAM   BANK0   BANK1   BANK2   BANK3   BANK4   BANK5   BANK6   BANK7   BANK8   BANK9  BANK10  BANK1
      +1  BANK12  BANK13  BANK14  BANK15
  4164 ;;      Params:         1       0       0       0       0       0       0       0       0       0       0       0       
      +0       0       0       0       0
  4165 ;;      Locals:         3       0       0       0       0       0       0       0       0       0       0       0       
      +0       0       0       0       0
  4166 ;;      Temps:          0       0       0       0       0       0       0       0       0       0       0       0       
      +0       0       0       0       0
  4167 ;;      Totals:         4       0       0       0       0       0       0       0       0       0       0       0       
      +0       0       0       0       0
  4168 ;;Total ram usage:        4 bytes
  4169 ;; Hardware stack levels used: 1
  4170 ;; Hardware stack levels required when called: 2
  4171 ;; This function calls:
  4172 ;;		_gpio_pin_direction_initialize
  4173 ;;		_gpio_pin_initialize
  4174 ;; This function is called by:
  4175 ;;		_APP_Init
  4176 ;; This function uses a non-reentrant model
  4177 ;;
  4178                           
  4179                           	psect	text27
  4180   001FCE                     __ptext27:
  4181                           	callstack 0
  4182   001FCE                     _keypad_initialize:
  4183                           	callstack 27
  4184   001FCE                     
  4185                           ;ECU/KEYPAD/ecu_keypad.c: 34:     if(((void*)0) == obj)
  4186   001FCE  500C               	movf	keypad_initialize@obj^0,w,c
  4187   001FD0  A4D8               	btfss	status,2,c
  4188   001FD2  EFED  F00F         	goto	u1681
  4189   001FD6  EFEF  F00F         	goto	u1680
  4190   001FDA                     u1681:
  4191   001FDA  EFF3  F00F         	goto	l2719
  4192   001FDE                     u1680:
  4193   001FDE                     
  4194                           ;ECU/KEYPAD/ecu_keypad.c: 35:     {;ECU/KEYPAD/ecu_keypad.c: 36:         ret = (Std_Retu
      +                          rnType)0X00;
  4195   001FDE  0E00               	movlw	0
  4196   001FE0  6E0D               	movwf	keypad_initialize@ret^0,c
  4197                           
  4198                           ;ECU/KEYPAD/ecu_keypad.c: 37:     }
  4199   001FE2  EF17  F010         	goto	l2743
  4200   001FE6                     l2719:
  4201                           
  4202                           ;ECU/KEYPAD/ecu_keypad.c: 39:     {;ECU/KEYPAD/ecu_keypad.c: 40:         uint8 num_row =
      +                           0, num_col = 0;
  4203   001FE6  0E00               	movlw	0
  4204   001FE8  6E0E               	movwf	keypad_initialize@num_row^0,c
  4205                           
  4206                           ;ECU/KEYPAD/ecu_keypad.c: 42:         for(num_row = 0; num_row<4; num_row++)
  4207   001FEA  0E00               	movlw	0
  4208   001FEC  6E0E               	movwf	keypad_initialize@num_row^0,c
  4209   001FEE                     l2725:
  4210   001FEE  500C               	movf	keypad_initialize@obj^0,w,c
  4211   001FF0  240E               	addwf	keypad_initialize@num_row^0,w,c
  4212   001FF2  6E09               	movwf	gpio_pin_initialize@pin_config^0,c
  4213   001FF4  EC07  F00F         	call	_gpio_pin_initialize	;wreg free
  4214   001FF8                     
  4215                           ;ECU/KEYPAD/ecu_keypad.c: 45:         }
  4216   001FF8  2A0E               	incf	keypad_initialize@num_row^0,f,c
  4217   001FFA  0E03               	movlw	3
  4218   001FFC  640E               	cpfsgt	keypad_initialize@num_row^0,c
  4219   001FFE  EF03  F010         	goto	u1691
  4220   002002  EF05  F010         	goto	u1690
  4221   002006                     u1691:
  4222   002006  EFF7  F00F         	goto	l2725
  4223   00200A                     u1690:
  4224   00200A                     
  4225                           ;ECU/KEYPAD/ecu_keypad.c: 47:         for(num_col = 0; num_col<4; num_col++)
  4226   00200A  0E00               	movlw	0
  4227   00200C  6E0F               	movwf	keypad_initialize@num_col^0,c
  4228   00200E                     l2737:
  4229                           
  4230                           ;ECU/KEYPAD/ecu_keypad.c: 48:         {;ECU/KEYPAD/ecu_keypad.c: 49:             ret = g
      +                          pio_pin_direction_initialize(&(obj->keypad_col_pins[num_col]));
  4231   00200E  500C               	movf	keypad_initialize@obj^0,w,c
  4232   002010  240F               	addwf	keypad_initialize@num_col^0,w,c
  4233   002012  0F04               	addlw	4
  4234   002014  6E01               	movwf	gpio_pin_direction_initialize@pin_config^0,c
  4235   002016  ECBB  F009         	call	_gpio_pin_direction_initialize	;wreg free
  4236   00201A  6E0D               	movwf	keypad_initialize@ret^0,c
  4237   00201C                     
  4238                           ;ECU/KEYPAD/ecu_keypad.c: 50:         }
  4239   00201C  2A0F               	incf	keypad_initialize@num_col^0,f,c
  4240   00201E  0E03               	movlw	3
  4241   002020  640F               	cpfsgt	keypad_initialize@num_col^0,c
  4242   002022  EF15  F010         	goto	u1701
  4243   002026  EF17  F010         	goto	u1700
  4244   00202A                     u1701:
  4245   00202A  EF07  F010         	goto	l2737
  4246   00202E                     u1700:
  4247   00202E                     l2743:
  4248                           
  4249                           ;ECU/KEYPAD/ecu_keypad.c: 55:     return ret;
  4250   00202E  500D               	movf	keypad_initialize@ret^0,w,c
  4251   002030  0012               	return		;funcret
  4252   002032                     __end_of_keypad_initialize:
  4253                           	callstack 0
  4254                           
  4255 ;; *************** function _dc_motor_initialize *****************
  4256 ;; Defined at:
  4257 ;;		line 21 in file "ECU/DC_MOTOR/ecu_dc_motor.c"
  4258 ;; Parameters:    Size  Location     Type
  4259 ;;  obj             1   11[COMRAM] PTR const struct .
  4260 ;;		 -> motor_1(2), 
  4261 ;; Auto vars:     Size  Location     Type
  4262 ;;  pin_2           1   15[COMRAM] struct .
  4263 ;;  pin_1           1   14[COMRAM] struct .
  4264 ;;  ret             1   13[COMRAM] unsigned char 
  4265 ;; Return value:  Size  Location     Type
  4266 ;;                  1    wreg      unsigned char 
  4267 ;; Registers used:
  4268 ;;		wreg, fsr2l, fsr2h, status,2, status,0, prodl, prodh, cstack
  4269 ;; Tracked objects:
  4270 ;;		On entry : 0/0
  4271 ;;		On exit  : 0/0
  4272 ;;		Unchanged: 0/0
  4273 ;; Data sizes:     COMRAM   BANK0   BANK1   BANK2   BANK3   BANK4   BANK5   BANK6   BANK7   BANK8   BANK9  BANK10  BANK1
      +1  BANK12  BANK13  BANK14  BANK15
  4274 ;;      Params:         1       0       0       0       0       0       0       0       0       0       0       0       
      +0       0       0       0       0
  4275 ;;      Locals:         3       0       0       0       0       0       0       0       0       0       0       0       
      +0       0       0       0       0
  4276 ;;      Temps:          1       0       0       0       0       0       0       0       0       0       0       0       
      +0       0       0       0       0
  4277 ;;      Totals:         5       0       0       0       0       0       0       0       0       0       0       0       
      +0       0       0       0       0
  4278 ;;Total ram usage:        5 bytes
  4279 ;; Hardware stack levels used: 1
  4280 ;; Hardware stack levels required when called: 2
  4281 ;; This function calls:
  4282 ;;		_gpio_pin_initialize
  4283 ;; This function is called by:
  4284 ;;		_APP_Init
  4285 ;; This function uses a non-reentrant model
  4286 ;;
  4287                           
  4288                           	psect	text28
  4289   001B24                     __ptext28:
  4290                           	callstack 0
  4291   001B24                     _dc_motor_initialize:
  4292                           	callstack 27
  4293   001B24                     
  4294                           ;ECU/DC_MOTOR/ecu_dc_motor.c: 25:     if(((void*)0) == obj)
  4295   001B24  500C               	movf	dc_motor_initialize@obj^0,w,c
  4296   001B26  A4D8               	btfss	status,2,c
  4297   001B28  EF98  F00D         	goto	u1881
  4298   001B2C  EF9A  F00D         	goto	u1880
  4299   001B30                     u1881:
  4300   001B30  EF9E  F00D         	goto	l2945
  4301   001B34                     u1880:
  4302   001B34                     
  4303                           ;ECU/DC_MOTOR/ecu_dc_motor.c: 26:     {;ECU/DC_MOTOR/ecu_dc_motor.c: 27:         ret = (
      +                          Std_ReturnType)0X00;
  4304   001B34  0E00               	movlw	0
  4305   001B36  6E0E               	movwf	dc_motor_initialize@ret^0,c
  4306                           
  4307                           ;ECU/DC_MOTOR/ecu_dc_motor.c: 28:     }
  4308   001B38  EFF1  F00D         	goto	l2963
  4309   001B3C                     l2945:
  4310                           
  4311                           ;ECU/DC_MOTOR/ecu_dc_motor.c: 31:     {;ECU/DC_MOTOR/ecu_dc_motor.c: 32:         pin_con
      +                          fig_t pin_1;;ECU/DC_MOTOR/ecu_dc_motor.c: 33:         pin_1.Pin = obj->dc_motor[0].dc_mo
      +                          tor_pin;
  4312   001B3C  500C               	movf	dc_motor_initialize@obj^0,w,c
  4313   001B3E  6ED9               	movwf	fsr2l,c
  4314   001B40  6ADA               	clrf	fsr2h,c
  4315   001B42  38DF               	swapf	223,w,c
  4316   001B44  0B07               	andlw	7
  4317   001B46  6E0D               	movwf	??_dc_motor_initialize^0,c
  4318   001B48  500F               	movf	dc_motor_initialize@pin_1^0,w,c
  4319   001B4A  180D               	xorwf	??_dc_motor_initialize^0,w,c
  4320   001B4C  0BF8               	andlw	-8
  4321   001B4E  180D               	xorwf	??_dc_motor_initialize^0,w,c
  4322   001B50  6E0F               	movwf	dc_motor_initialize@pin_1^0,c
  4323                           
  4324                           ;ECU/DC_MOTOR/ecu_dc_motor.c: 34:         pin_1.Port = obj->dc_motor[0].dc_motor_port;
  4325   001B52  500C               	movf	dc_motor_initialize@obj^0,w,c
  4326   001B54  6ED9               	movwf	fsr2l,c
  4327   001B56  6ADA               	clrf	fsr2h,c
  4328   001B58  50DF               	movf	223,w,c
  4329   001B5A  0B0F               	andlw	15
  4330   001B5C  6E0D               	movwf	??_dc_motor_initialize^0,c
  4331   001B5E  460D               	rlncf	??_dc_motor_initialize^0,f,c
  4332   001B60  460D               	rlncf	??_dc_motor_initialize^0,f,c
  4333   001B62  460D               	rlncf	??_dc_motor_initialize^0,f,c
  4334   001B64  500F               	movf	dc_motor_initialize@pin_1^0,w,c
  4335   001B66  180D               	xorwf	??_dc_motor_initialize^0,w,c
  4336   001B68  0BC7               	andlw	-57
  4337   001B6A  180D               	xorwf	??_dc_motor_initialize^0,w,c
  4338   001B6C  6E0F               	movwf	dc_motor_initialize@pin_1^0,c
  4339   001B6E                     
  4340                           ;ECU/DC_MOTOR/ecu_dc_motor.c: 35:         pin_1.Direction = GPIO_OUTPUT;
  4341   001B6E  9E0F               	bcf	dc_motor_initialize@pin_1^0,7,c
  4342   001B70                     
  4343                           ;ECU/DC_MOTOR/ecu_dc_motor.c: 36:         pin_1.Logic = obj->dc_motor[0].motor_status;
  4344   001B70  500C               	movf	dc_motor_initialize@obj^0,w,c
  4345   001B72  6ED9               	movwf	fsr2l,c
  4346   001B74  6ADA               	clrf	fsr2h,c
  4347   001B76  AEDF               	btfss	indf2,7,c
  4348   001B78  D002               	bra	u1895
  4349   001B7A  8C0F               	bsf	dc_motor_initialize@pin_1^0,6,c
  4350   001B7C  D001               	bra	u1897
  4351   001B7E                     u1895:
  4352   001B7E  9C0F               	bcf	dc_motor_initialize@pin_1^0,6,c
  4353   001B80                     u1897:
  4354   001B80  0E0F               	movlw	low dc_motor_initialize@pin_1
  4355   001B82  6E09               	movwf	gpio_pin_initialize@pin_config^0,c
  4356   001B84  EC07  F00F         	call	_gpio_pin_initialize	;wreg free
  4357   001B88                     
  4358                           ;ECU/DC_MOTOR/ecu_dc_motor.c: 41:         pin_config_t pin_2;;ECU/DC_MOTOR/ecu_dc_motor.
      +                          c: 42:         pin_2.Pin = obj->dc_motor[1].dc_motor_pin;
  4359   001B88  500C               	movf	dc_motor_initialize@obj^0,w,c
  4360   001B8A  6ED9               	movwf	fsr2l,c
  4361   001B8C  6ADA               	clrf	fsr2h,c
  4362   001B8E  0E01               	movlw	1
  4363   001B90  26D9               	addwf	fsr2l,f,c
  4364   001B92  38DF               	swapf	223,w,c
  4365   001B94  0B07               	andlw	7
  4366   001B96  6E0D               	movwf	??_dc_motor_initialize^0,c
  4367   001B98  5010               	movf	dc_motor_initialize@pin_2^0,w,c
  4368   001B9A  180D               	xorwf	??_dc_motor_initialize^0,w,c
  4369   001B9C  0BF8               	andlw	-8
  4370   001B9E  180D               	xorwf	??_dc_motor_initialize^0,w,c
  4371   001BA0  6E10               	movwf	dc_motor_initialize@pin_2^0,c
  4372   001BA2                     
  4373                           ;ECU/DC_MOTOR/ecu_dc_motor.c: 43:         pin_2.Port = obj->dc_motor[1].dc_motor_port;
  4374   001BA2  500C               	movf	dc_motor_initialize@obj^0,w,c
  4375   001BA4  6ED9               	movwf	fsr2l,c
  4376   001BA6  6ADA               	clrf	fsr2h,c
  4377   001BA8  0E01               	movlw	1
  4378   001BAA  26D9               	addwf	fsr2l,f,c
  4379   001BAC  50DF               	movf	223,w,c
  4380   001BAE  0B0F               	andlw	15
  4381   001BB0  6E0D               	movwf	??_dc_motor_initialize^0,c
  4382   001BB2  460D               	rlncf	??_dc_motor_initialize^0,f,c
  4383   001BB4  460D               	rlncf	??_dc_motor_initialize^0,f,c
  4384   001BB6  460D               	rlncf	??_dc_motor_initialize^0,f,c
  4385   001BB8  5010               	movf	dc_motor_initialize@pin_2^0,w,c
  4386   001BBA  180D               	xorwf	??_dc_motor_initialize^0,w,c
  4387   001BBC  0BC7               	andlw	-57
  4388   001BBE  180D               	xorwf	??_dc_motor_initialize^0,w,c
  4389   001BC0  6E10               	movwf	dc_motor_initialize@pin_2^0,c
  4390   001BC2                     
  4391                           ;ECU/DC_MOTOR/ecu_dc_motor.c: 44:         pin_2.Direction = GPIO_OUTPUT;
  4392   001BC2  9E10               	bcf	dc_motor_initialize@pin_2^0,7,c
  4393   001BC4                     
  4394                           ;ECU/DC_MOTOR/ecu_dc_motor.c: 45:         pin_2.Logic = obj->dc_motor[1].motor_status;
  4395   001BC4  500C               	movf	dc_motor_initialize@obj^0,w,c
  4396   001BC6  6ED9               	movwf	fsr2l,c
  4397   001BC8  6ADA               	clrf	fsr2h,c
  4398   001BCA  0E01               	movlw	1
  4399   001BCC  26D9               	addwf	fsr2l,f,c
  4400   001BCE  AEDF               	btfss	indf2,7,c
  4401   001BD0  D002               	bra	u1905
  4402   001BD2  8C10               	bsf	dc_motor_initialize@pin_2^0,6,c
  4403   001BD4  D001               	bra	u1907
  4404   001BD6                     u1905:
  4405   001BD6  9C10               	bcf	dc_motor_initialize@pin_2^0,6,c
  4406   001BD8                     u1907:
  4407   001BD8                     
  4408                           ;ECU/DC_MOTOR/ecu_dc_motor.c: 47:         ret = gpio_pin_initialize(&pin_2);
  4409   001BD8  0E10               	movlw	low dc_motor_initialize@pin_2
  4410   001BDA  6E09               	movwf	gpio_pin_initialize@pin_config^0,c
  4411   001BDC  EC07  F00F         	call	_gpio_pin_initialize	;wreg free
  4412   001BE0  6E0E               	movwf	dc_motor_initialize@ret^0,c
  4413   001BE2                     l2963:
  4414                           
  4415                           ;ECU/DC_MOTOR/ecu_dc_motor.c: 51:     return ret;
  4416   001BE2  500E               	movf	dc_motor_initialize@ret^0,w,c
  4417   001BE4  0012               	return		;funcret
  4418   001BE6                     __end_of_dc_motor_initialize:
  4419                           	callstack 0
  4420                           
  4421 ;; *************** function _gpio_pin_initialize *****************
  4422 ;; Defined at:
  4423 ;;		line 219 in file "HAL/GPIO/hal_gpio.c"
  4424 ;; Parameters:    Size  Location     Type
  4425 ;;  pin_config      1    8[COMRAM] PTR const struct .
  4426 ;;		 -> dc_motor_initialize@pin_2(1), dc_motor_initialize@pin_1(1), key1$keypad_row_pins(4), key1(8), 
  4427 ;;		 -> lcd1$lcd_data(4), lcd1(6), led_initialize@pin_obj(1), 
  4428 ;; Auto vars:     Size  Location     Type
  4429 ;;  Ret             1   10[COMRAM] unsigned char 
  4430 ;; Return value:  Size  Location     Type
  4431 ;;                  1    wreg      unsigned char 
  4432 ;; Registers used:
  4433 ;;		wreg, fsr2l, fsr2h, status,2, status,0, prodl, prodh, cstack
  4434 ;; Tracked objects:
  4435 ;;		On entry : 0/0
  4436 ;;		On exit  : 0/0
  4437 ;;		Unchanged: 0/0
  4438 ;; Data sizes:     COMRAM   BANK0   BANK1   BANK2   BANK3   BANK4   BANK5   BANK6   BANK7   BANK8   BANK9  BANK10  BANK1
      +1  BANK12  BANK13  BANK14  BANK15
  4439 ;;      Params:         1       0       0       0       0       0       0       0       0       0       0       0       
      +0       0       0       0       0
  4440 ;;      Locals:         1       0       0       0       0       0       0       0       0       0       0       0       
      +0       0       0       0       0
  4441 ;;      Temps:          1       0       0       0       0       0       0       0       0       0       0       0       
      +0       0       0       0       0
  4442 ;;      Totals:         3       0       0       0       0       0       0       0       0       0       0       0       
      +0       0       0       0       0
  4443 ;;Total ram usage:        3 bytes
  4444 ;; Hardware stack levels used: 1
  4445 ;; Hardware stack levels required when called: 1
  4446 ;; This function calls:
  4447 ;;		_gpio_pin_direction_initialize
  4448 ;;		_gpio_pin_write_logic
  4449 ;; This function is called by:
  4450 ;;		_keypad_initialize
  4451 ;;		_lcd_4bit_initialze
  4452 ;;		_led_initialize
  4453 ;;		_dc_motor_initialize
  4454 ;;		_lcd_8bit_initialze
  4455 ;; This function uses a non-reentrant model
  4456 ;;
  4457                           
  4458                           	psect	text29
  4459   001E0E                     __ptext29:
  4460                           	callstack 0
  4461   001E0E                     _gpio_pin_initialize:
  4462                           	callstack 27
  4463   001E0E                     
  4464                           ;HAL/GPIO/hal_gpio.c: 223:     if(((void*)0) == pin_config || (pin_config->Pin >= 8) || 
      +                          (pin_config->Port >= 5))
  4465   001E0E  5009               	movf	gpio_pin_initialize@pin_config^0,w,c
  4466   001E10  B4D8               	btfsc	status,2,c
  4467   001E12  EF0D  F00F         	goto	u1541
  4468   001E16  EF0F  F00F         	goto	u1540
  4469   001E1A                     u1541:
  4470   001E1A  EF2D  F00F         	goto	l2647
  4471   001E1E                     u1540:
  4472   001E1E  5009               	movf	gpio_pin_initialize@pin_config^0,w,c
  4473   001E20  6ED9               	movwf	fsr2l,c
  4474   001E22  6ADA               	clrf	fsr2h,c
  4475   001E24  50DF               	movf	223,w,c
  4476   001E26  0B07               	andlw	7
  4477   001E28  6E0A               	movwf	??_gpio_pin_initialize^0,c
  4478   001E2A  0E08               	movlw	8
  4479   001E2C  600A               	cpfslt	??_gpio_pin_initialize^0,c
  4480   001E2E  EF1B  F00F         	goto	u1551
  4481   001E32  EF1D  F00F         	goto	u1550
  4482   001E36                     u1551:
  4483   001E36  EF2D  F00F         	goto	l2647
  4484   001E3A                     u1550:
  4485   001E3A  5009               	movf	gpio_pin_initialize@pin_config^0,w,c
  4486   001E3C  6ED9               	movwf	fsr2l,c
  4487   001E3E  6ADA               	clrf	fsr2h,c
  4488   001E40  30DF               	rrcf	223,w,c
  4489   001E42  32E8               	rrcf	wreg,f,c
  4490   001E44  32E8               	rrcf	wreg,f,c
  4491   001E46  0B07               	andlw	7
  4492   001E48  6E0A               	movwf	??_gpio_pin_initialize^0,c
  4493   001E4A  0E04               	movlw	4
  4494   001E4C  640A               	cpfsgt	??_gpio_pin_initialize^0,c
  4495   001E4E  EF2B  F00F         	goto	u1561
  4496   001E52  EF2D  F00F         	goto	u1560
  4497   001E56                     u1561:
  4498   001E56  EF31  F00F         	goto	l2649
  4499   001E5A                     u1560:
  4500   001E5A                     l2647:
  4501                           
  4502                           ;HAL/GPIO/hal_gpio.c: 224:     {;HAL/GPIO/hal_gpio.c: 225:         Ret = (Std_ReturnType
      +                          )0X00;
  4503   001E5A  0E00               	movlw	0
  4504   001E5C  6E0B               	movwf	gpio_pin_initialize@Ret^0,c
  4505                           
  4506                           ;HAL/GPIO/hal_gpio.c: 226:     }
  4507   001E5E  EF42  F00F         	goto	l2651
  4508   001E62                     l2649:
  4509                           
  4510                           ;HAL/GPIO/hal_gpio.c: 228:     {;HAL/GPIO/hal_gpio.c: 230:         Ret = gpio_pin_direct
      +                          ion_initialize(pin_config);
  4511   001E62  C009  F001         	movff	gpio_pin_initialize@pin_config,gpio_pin_direction_initialize@pin_config
  4512   001E66  ECBB  F009         	call	_gpio_pin_direction_initialize	;wreg free
  4513   001E6A  6E0B               	movwf	gpio_pin_initialize@Ret^0,c
  4514                           
  4515                           ;HAL/GPIO/hal_gpio.c: 231:         Ret = gpio_pin_write_logic(pin_config, pin_config->Lo
      +                          gic);
  4516   001E6C  C009  F001         	movff	gpio_pin_initialize@pin_config,gpio_pin_write_logic@pin_config
  4517   001E70  5009               	movf	gpio_pin_initialize@pin_config^0,w,c
  4518   001E72  6ED9               	movwf	fsr2l,c
  4519   001E74  6ADA               	clrf	fsr2h,c
  4520   001E76  0E00               	movlw	0
  4521   001E78  BCDF               	btfsc	indf2,6,c
  4522   001E7A  0E01               	movlw	1
  4523   001E7C  6E02               	movwf	gpio_pin_write_logic@logic^0,c
  4524   001E7E  EC5C  F00A         	call	_gpio_pin_write_logic	;wreg free
  4525   001E82  6E0B               	movwf	gpio_pin_initialize@Ret^0,c
  4526   001E84                     l2651:
  4527                           
  4528                           ;HAL/GPIO/hal_gpio.c: 235:     return Ret;
  4529   001E84  500B               	movf	gpio_pin_initialize@Ret^0,w,c
  4530   001E86  0012               	return		;funcret
  4531   001E88                     __end_of_gpio_pin_initialize:
  4532                           	callstack 0
  4533                           
  4534 ;; *************** function _gpio_pin_write_logic *****************
  4535 ;; Defined at:
  4536 ;;		line 118 in file "HAL/GPIO/hal_gpio.c"
  4537 ;; Parameters:    Size  Location     Type
  4538 ;;  pin_config      1    0[COMRAM] PTR const struct .
  4539 ;;		 -> dc_motor_stop@pin_2(1), dc_motor_stop@pin_1(1), dc_motor_move_left@pin_2(1), dc_motor_move_left@pin_1(1), 
  4540 ;;		 -> dc_motor_move_right@pin_2(1), dc_motor_move_right@pin_1(1), dc_motor_initialize@pin_2(1), dc_motor_initialize@pi
      +n_1(1), 
  4541 ;;		 -> key1$keypad_row_pins(4), key1(8), lcd1$lcd_data(4), lcd1(6), 
  4542 ;;		 -> led_off@pin_obj(1), led_on@pin_obj(1), led_initialize@pin_obj(1), 
  4543 ;;  logic           1    1[COMRAM] enum E3232
  4544 ;; Auto vars:     Size  Location     Type
  4545 ;;  Ret             1    7[COMRAM] unsigned char 
  4546 ;; Return value:  Size  Location     Type
  4547 ;;                  1    wreg      unsigned char 
  4548 ;; Registers used:
  4549 ;;		wreg, fsr2l, fsr2h, status,2, status,0, prodl, prodh
  4550 ;; Tracked objects:
  4551 ;;		On entry : 0/0
  4552 ;;		On exit  : 0/0
  4553 ;;		Unchanged: 0/0
  4554 ;; Data sizes:     COMRAM   BANK0   BANK1   BANK2   BANK3   BANK4   BANK5   BANK6   BANK7   BANK8   BANK9  BANK10  BANK1
      +1  BANK12  BANK13  BANK14  BANK15
  4555 ;;      Params:         2       0       0       0       0       0       0       0       0       0       0       0       
      +0       0       0       0       0
  4556 ;;      Locals:         1       0       0       0       0       0       0       0       0       0       0       0       
      +0       0       0       0       0
  4557 ;;      Temps:          5       0       0       0       0       0       0       0       0       0       0       0       
      +0       0       0       0       0
  4558 ;;      Totals:         8       0       0       0       0       0       0       0       0       0       0       0       
      +0       0       0       0       0
  4559 ;;Total ram usage:        8 bytes
  4560 ;; Hardware stack levels used: 1
  4561 ;; This function calls:
  4562 ;;		Nothing
  4563 ;; This function is called by:
  4564 ;;		_keypad_get_value
  4565 ;;		_lcd_4bit_send_command
  4566 ;;		_lcd_4bit_send_char_data
  4567 ;;		_lcd_send_4bit
  4568 ;;		_lcd_4bit_send_enable_signal
  4569 ;;		_led_on
  4570 ;;		_led_off
  4571 ;;		_gpio_pin_initialize
  4572 ;;		_dc_motor_move_right
  4573 ;;		_dc_motor_stop
  4574 ;;		_lcd_8bit_send_command
  4575 ;;		_lcd_8bit_send_char_data
  4576 ;;		_lcd_send_8bit
  4577 ;;		_lcd_8bit_send_enable_signal
  4578 ;;		_dc_motor_move_left
  4579 ;; This function uses a non-reentrant model
  4580 ;;
  4581                           
  4582                           	psect	text30
  4583   0014B8                     __ptext30:
  4584                           	callstack 0
  4585   0014B8                     _gpio_pin_write_logic:
  4586                           	callstack 29
  4587   0014B8                     
  4588                           ;HAL/GPIO/hal_gpio.c: 118: Std_ReturnType gpio_pin_write_logic(const pin_config_t* pin_c
      +                          onfig, logic_t logic);HAL/GPIO/hal_gpio.c: 119: {;HAL/GPIO/hal_gpio.c: 120:     Std_Retu
      +                          rnType Ret = (Std_ReturnType)0X01;
  4589   0014B8  0E01               	movlw	1
  4590   0014BA  6E08               	movwf	gpio_pin_write_logic@Ret^0,c
  4591                           
  4592                           ;HAL/GPIO/hal_gpio.c: 122:     if(((void*)0) == pin_config || (pin_config->Pin >= 8) || 
      +                          (pin_config->Port >= 5))
  4593   0014BC  5001               	movf	gpio_pin_write_logic@pin_config^0,w,c
  4594   0014BE  B4D8               	btfsc	status,2,c
  4595   0014C0  EF64  F00A         	goto	u1341
  4596   0014C4  EF66  F00A         	goto	u1340
  4597   0014C8                     u1341:
  4598   0014C8  EF84  F00A         	goto	l2549
  4599   0014CC                     u1340:
  4600   0014CC  5001               	movf	gpio_pin_write_logic@pin_config^0,w,c
  4601   0014CE  6ED9               	movwf	fsr2l,c
  4602   0014D0  6ADA               	clrf	fsr2h,c
  4603   0014D2  50DF               	movf	223,w,c
  4604   0014D4  0B07               	andlw	7
  4605   0014D6  6E03               	movwf	??_gpio_pin_write_logic^0,c
  4606   0014D8  0E08               	movlw	8
  4607   0014DA  6003               	cpfslt	??_gpio_pin_write_logic^0,c
  4608   0014DC  EF72  F00A         	goto	u1351
  4609   0014E0  EF74  F00A         	goto	u1350
  4610   0014E4                     u1351:
  4611   0014E4  EF84  F00A         	goto	l2549
  4612   0014E8                     u1350:
  4613   0014E8  5001               	movf	gpio_pin_write_logic@pin_config^0,w,c
  4614   0014EA  6ED9               	movwf	fsr2l,c
  4615   0014EC  6ADA               	clrf	fsr2h,c
  4616   0014EE  30DF               	rrcf	223,w,c
  4617   0014F0  32E8               	rrcf	wreg,f,c
  4618   0014F2  32E8               	rrcf	wreg,f,c
  4619   0014F4  0B07               	andlw	7
  4620   0014F6  6E03               	movwf	??_gpio_pin_write_logic^0,c
  4621   0014F8  0E04               	movlw	4
  4622   0014FA  6403               	cpfsgt	??_gpio_pin_write_logic^0,c
  4623   0014FC  EF82  F00A         	goto	u1361
  4624   001500  EF84  F00A         	goto	u1360
  4625   001504                     u1361:
  4626   001504  EF88  F00A         	goto	l2551
  4627   001508                     u1360:
  4628   001508                     l2549:
  4629                           
  4630                           ;HAL/GPIO/hal_gpio.c: 123:     {;HAL/GPIO/hal_gpio.c: 124:         Ret = (Std_ReturnType
      +                          )0X00;
  4631   001508  0E00               	movlw	0
  4632   00150A  6E08               	movwf	gpio_pin_write_logic@Ret^0,c
  4633                           
  4634                           ;HAL/GPIO/hal_gpio.c: 125:     }
  4635   00150C  EFE9  F00A         	goto	l318
  4636   001510                     l2551:
  4637                           
  4638                           ;HAL/GPIO/hal_gpio.c: 128:     {;HAL/GPIO/hal_gpio.c: 129:         if(logic == GPIO_HIGH
      +                          )
  4639   001510  0402               	decf	gpio_pin_write_logic@logic^0,w,c
  4640   001512  A4D8               	btfss	status,2,c
  4641   001514  EF8E  F00A         	goto	u1371
  4642   001518  EF90  F00A         	goto	u1370
  4643   00151C                     u1371:
  4644   00151C  EFB8  F00A         	goto	l2555
  4645   001520                     u1370:
  4646   001520                     
  4647                           ;HAL/GPIO/hal_gpio.c: 130:         {;HAL/GPIO/hal_gpio.c: 132:             (*lat_registe
      +                          r[pin_config->Port] |= ( (uint8) 1 << pin_config->Pin));
  4648   001520  5001               	movf	gpio_pin_write_logic@pin_config^0,w,c
  4649   001522  6ED9               	movwf	fsr2l,c
  4650   001524  6ADA               	clrf	fsr2h,c
  4651   001526  50DF               	movf	223,w,c
  4652   001528  0B07               	andlw	7
  4653   00152A  6E03               	movwf	??_gpio_pin_write_logic^0,c
  4654   00152C  0E01               	movlw	1
  4655   00152E  6E04               	movwf	(??_gpio_pin_write_logic+1)^0,c
  4656   001530  2A03               	incf	??_gpio_pin_write_logic^0,f,c
  4657   001532  EF9D  F00A         	goto	u1384
  4658   001536                     u1385:
  4659   001536  90D8               	bcf	status,0,c
  4660   001538  3604               	rlcf	(??_gpio_pin_write_logic+1)^0,f,c
  4661   00153A                     u1384:
  4662   00153A  2E03               	decfsz	??_gpio_pin_write_logic^0,f,c
  4663   00153C  EF9B  F00A         	goto	u1385
  4664   001540  5001               	movf	gpio_pin_write_logic@pin_config^0,w,c
  4665   001542  6ED9               	movwf	fsr2l,c
  4666   001544  6ADA               	clrf	fsr2h,c
  4667   001546  30DF               	rrcf	223,w,c
  4668   001548  32E8               	rrcf	wreg,f,c
  4669   00154A  32E8               	rrcf	wreg,f,c
  4670   00154C  0B07               	andlw	7
  4671   00154E  0D02               	mullw	2
  4672   001550  50F3               	movf	243,w,c
  4673   001552  0F32               	addlw	low _lat_register
  4674   001554  6ED9               	movwf	fsr2l,c
  4675   001556  6ADA               	clrf	fsr2h,c
  4676   001558  CFDE F005          	movff	postinc2,??_gpio_pin_write_logic+2
  4677   00155C  CFDD F006          	movff	postdec2,??_gpio_pin_write_logic+3
  4678   001560  C005  FFD9         	movff	??_gpio_pin_write_logic+2,fsr2l
  4679   001564  C006  FFDA         	movff	??_gpio_pin_write_logic+3,fsr2h
  4680   001568  5004               	movf	(??_gpio_pin_write_logic+1)^0,w,c
  4681   00156A  12DF               	iorwf	indf2,f,c
  4682                           
  4683                           ;HAL/GPIO/hal_gpio.c: 134:         }
  4684   00156C  EFE9  F00A         	goto	l318
  4685   001570                     l2555:
  4686   001570  5002               	movf	gpio_pin_write_logic@logic^0,w,c
  4687   001572  A4D8               	btfss	status,2,c
  4688   001574  EFBE  F00A         	goto	u1391
  4689   001578  EFC0  F00A         	goto	u1390
  4690   00157C                     u1391:
  4691   00157C  EF84  F00A         	goto	l2549
  4692   001580                     u1390:
  4693   001580                     
  4694                           ;HAL/GPIO/hal_gpio.c: 137:         {;HAL/GPIO/hal_gpio.c: 139:             (*lat_registe
      +                          r[pin_config->Port] &= ~( (uint8) 1 << pin_config->Pin));
  4695   001580  5001               	movf	gpio_pin_write_logic@pin_config^0,w,c
  4696   001582  6ED9               	movwf	fsr2l,c
  4697   001584  6ADA               	clrf	fsr2h,c
  4698   001586  50DF               	movf	223,w,c
  4699   001588  0B07               	andlw	7
  4700   00158A  6E03               	movwf	??_gpio_pin_write_logic^0,c
  4701   00158C  0E01               	movlw	1
  4702   00158E  6E04               	movwf	(??_gpio_pin_write_logic+1)^0,c
  4703   001590  2A03               	incf	??_gpio_pin_write_logic^0,f,c
  4704   001592  EFCD  F00A         	goto	u1404
  4705   001596                     u1405:
  4706   001596  90D8               	bcf	status,0,c
  4707   001598  3604               	rlcf	(??_gpio_pin_write_logic+1)^0,f,c
  4708   00159A                     u1404:
  4709   00159A  2E03               	decfsz	??_gpio_pin_write_logic^0,f,c
  4710   00159C  EFCB  F00A         	goto	u1405
  4711   0015A0  5004               	movf	(??_gpio_pin_write_logic+1)^0,w,c
  4712   0015A2  0AFF               	xorlw	255
  4713   0015A4  6E05               	movwf	(??_gpio_pin_write_logic+2)^0,c
  4714   0015A6  5001               	movf	gpio_pin_write_logic@pin_config^0,w,c
  4715   0015A8  6ED9               	movwf	fsr2l,c
  4716   0015AA  6ADA               	clrf	fsr2h,c
  4717   0015AC  30DF               	rrcf	223,w,c
  4718   0015AE  32E8               	rrcf	wreg,f,c
  4719   0015B0  32E8               	rrcf	wreg,f,c
  4720   0015B2  0B07               	andlw	7
  4721   0015B4  0D02               	mullw	2
  4722   0015B6  50F3               	movf	243,w,c
  4723   0015B8  0F32               	addlw	low _lat_register
  4724   0015BA  6ED9               	movwf	fsr2l,c
  4725   0015BC  6ADA               	clrf	fsr2h,c
  4726   0015BE  CFDE F006          	movff	postinc2,??_gpio_pin_write_logic+3
  4727   0015C2  CFDD F007          	movff	postdec2,??_gpio_pin_write_logic+4
  4728   0015C6  C006  FFD9         	movff	??_gpio_pin_write_logic+3,fsr2l
  4729   0015CA  C007  FFDA         	movff	??_gpio_pin_write_logic+4,fsr2h
  4730   0015CE  5005               	movf	(??_gpio_pin_write_logic+2)^0,w,c
  4731   0015D0  16DF               	andwf	indf2,f,c
  4732   0015D2                     l318:
  4733                           
  4734                           ;HAL/GPIO/hal_gpio.c: 149:     return Ret;
  4735   0015D2  5008               	movf	gpio_pin_write_logic@Ret^0,w,c
  4736   0015D4  0012               	return		;funcret
  4737   0015D6                     __end_of_gpio_pin_write_logic:
  4738                           	callstack 0
  4739                           
  4740 ;; *************** function _gpio_pin_direction_initialize *****************
  4741 ;; Defined at:
  4742 ;;		line 41 in file "HAL/GPIO/hal_gpio.c"
  4743 ;; Parameters:    Size  Location     Type
  4744 ;;  pin_config      1    0[COMRAM] PTR const struct .
  4745 ;;		 -> dc_motor_initialize@pin_2(1), dc_motor_initialize@pin_1(1), key1$keypad_col_pins(4), key1$keypad_row_pins(4), 
  4746 ;;		 -> key1(8), lcd1$lcd_data(4), lcd1(6), led_initialize@pin_obj(1), 
  4747 ;; Auto vars:     Size  Location     Type
  4748 ;;  Ret             1    6[COMRAM] unsigned char 
  4749 ;; Return value:  Size  Location     Type
  4750 ;;                  1    wreg      unsigned char 
  4751 ;; Registers used:
  4752 ;;		wreg, fsr2l, fsr2h, status,2, status,0, prodl, prodh
  4753 ;; Tracked objects:
  4754 ;;		On entry : 0/0
  4755 ;;		On exit  : 0/0
  4756 ;;		Unchanged: 0/0
  4757 ;; Data sizes:     COMRAM   BANK0   BANK1   BANK2   BANK3   BANK4   BANK5   BANK6   BANK7   BANK8   BANK9  BANK10  BANK1
      +1  BANK12  BANK13  BANK14  BANK15
  4758 ;;      Params:         1       0       0       0       0       0       0       0       0       0       0       0       
      +0       0       0       0       0
  4759 ;;      Locals:         1       0       0       0       0       0       0       0       0       0       0       0       
      +0       0       0       0       0
  4760 ;;      Temps:          5       0       0       0       0       0       0       0       0       0       0       0       
      +0       0       0       0       0
  4761 ;;      Totals:         7       0       0       0       0       0       0       0       0       0       0       0       
      +0       0       0       0       0
  4762 ;;Total ram usage:        7 bytes
  4763 ;; Hardware stack levels used: 1
  4764 ;; This function calls:
  4765 ;;		Nothing
  4766 ;; This function is called by:
  4767 ;;		_keypad_initialize
  4768 ;;		_gpio_pin_initialize
  4769 ;; This function uses a non-reentrant model
  4770 ;;
  4771                           
  4772                           	psect	text31
  4773   001376                     __ptext31:
  4774                           	callstack 0
  4775   001376                     _gpio_pin_direction_initialize:
  4776                           	callstack 27
  4777   001376                     
  4778                           ;HAL/GPIO/hal_gpio.c: 41: Std_ReturnType gpio_pin_direction_initialize(const pin_config_
      +                          t* pin_config);HAL/GPIO/hal_gpio.c: 42: {;HAL/GPIO/hal_gpio.c: 43:     Std_ReturnType Re
      +                          t = (Std_ReturnType)0X01;
  4779   001376  0E01               	movlw	1
  4780   001378  6E07               	movwf	gpio_pin_direction_initialize@Ret^0,c
  4781                           
  4782                           ;HAL/GPIO/hal_gpio.c: 45:     if( (((void*)0) == pin_config) || (pin_config->Pin >= 8) |
      +                          | (pin_config->Port >= 5))
  4783   00137A  5001               	movf	gpio_pin_direction_initialize@pin_config^0,w,c
  4784   00137C  B4D8               	btfsc	status,2,c
  4785   00137E  EFC3  F009         	goto	u1451
  4786   001382  EFC5  F009         	goto	u1450
  4787   001386                     u1451:
  4788   001386  EFE3  F009         	goto	l2603
  4789   00138A                     u1450:
  4790   00138A  5001               	movf	gpio_pin_direction_initialize@pin_config^0,w,c
  4791   00138C  6ED9               	movwf	fsr2l,c
  4792   00138E  6ADA               	clrf	fsr2h,c
  4793   001390  50DF               	movf	223,w,c
  4794   001392  0B07               	andlw	7
  4795   001394  6E02               	movwf	??_gpio_pin_direction_initialize^0,c
  4796   001396  0E08               	movlw	8
  4797   001398  6002               	cpfslt	??_gpio_pin_direction_initialize^0,c
  4798   00139A  EFD1  F009         	goto	u1461
  4799   00139E  EFD3  F009         	goto	u1460
  4800   0013A2                     u1461:
  4801   0013A2  EFE3  F009         	goto	l2603
  4802   0013A6                     u1460:
  4803   0013A6  5001               	movf	gpio_pin_direction_initialize@pin_config^0,w,c
  4804   0013A8  6ED9               	movwf	fsr2l,c
  4805   0013AA  6ADA               	clrf	fsr2h,c
  4806   0013AC  30DF               	rrcf	223,w,c
  4807   0013AE  32E8               	rrcf	wreg,f,c
  4808   0013B0  32E8               	rrcf	wreg,f,c
  4809   0013B2  0B07               	andlw	7
  4810   0013B4  6E02               	movwf	??_gpio_pin_direction_initialize^0,c
  4811   0013B6  0E04               	movlw	4
  4812   0013B8  6402               	cpfsgt	??_gpio_pin_direction_initialize^0,c
  4813   0013BA  EFE1  F009         	goto	u1471
  4814   0013BE  EFE3  F009         	goto	u1470
  4815   0013C2                     u1471:
  4816   0013C2  EF3A  F00A         	goto	l2611
  4817   0013C6                     u1470:
  4818   0013C6                     l2603:
  4819                           
  4820                           ;HAL/GPIO/hal_gpio.c: 46:     {;HAL/GPIO/hal_gpio.c: 47:         Ret = (Std_ReturnType)0
      +                          X00;
  4821   0013C6  0E00               	movlw	0
  4822   0013C8  6E07               	movwf	gpio_pin_direction_initialize@Ret^0,c
  4823                           
  4824                           ;HAL/GPIO/hal_gpio.c: 48:     }
  4825   0013CA  EF5A  F00A         	goto	l2613
  4826   0013CE                     l2605:
  4827                           
  4828                           ;HAL/GPIO/hal_gpio.c: 56:                 (*tris_register[pin_config->Port] &= ~( (uint8
      +                          ) 1 << pin_config->Pin));
  4829   0013CE  5001               	movf	gpio_pin_direction_initialize@pin_config^0,w,c
  4830   0013D0  6ED9               	movwf	fsr2l,c
  4831   0013D2  6ADA               	clrf	fsr2h,c
  4832   0013D4  50DF               	movf	223,w,c
  4833   0013D6  0B07               	andlw	7
  4834   0013D8  6E02               	movwf	??_gpio_pin_direction_initialize^0,c
  4835   0013DA  0E01               	movlw	1
  4836   0013DC  6E03               	movwf	(??_gpio_pin_direction_initialize+1)^0,c
  4837   0013DE  2A02               	incf	??_gpio_pin_direction_initialize^0,f,c
  4838   0013E0  EFF4  F009         	goto	u1484
  4839   0013E4                     u1485:
  4840   0013E4  90D8               	bcf	status,0,c
  4841   0013E6  3603               	rlcf	(??_gpio_pin_direction_initialize+1)^0,f,c
  4842   0013E8                     u1484:
  4843   0013E8  2E02               	decfsz	??_gpio_pin_direction_initialize^0,f,c
  4844   0013EA  EFF2  F009         	goto	u1485
  4845   0013EE  5003               	movf	(??_gpio_pin_direction_initialize+1)^0,w,c
  4846   0013F0  0AFF               	xorlw	255
  4847   0013F2  6E04               	movwf	(??_gpio_pin_direction_initialize+2)^0,c
  4848   0013F4  5001               	movf	gpio_pin_direction_initialize@pin_config^0,w,c
  4849   0013F6  6ED9               	movwf	fsr2l,c
  4850   0013F8  6ADA               	clrf	fsr2h,c
  4851   0013FA  30DF               	rrcf	223,w,c
  4852   0013FC  32E8               	rrcf	wreg,f,c
  4853   0013FE  32E8               	rrcf	wreg,f,c
  4854   001400  0B07               	andlw	7
  4855   001402  0D02               	mullw	2
  4856   001404  50F3               	movf	243,w,c
  4857   001406  0F3C               	addlw	low _tris_register
  4858   001408  6ED9               	movwf	fsr2l,c
  4859   00140A  6ADA               	clrf	fsr2h,c
  4860   00140C  CFDE F005          	movff	postinc2,??_gpio_pin_direction_initialize+3
  4861   001410  CFDD F006          	movff	postdec2,??_gpio_pin_direction_initialize+4
  4862   001414  C005  FFD9         	movff	??_gpio_pin_direction_initialize+3,fsr2l
  4863   001418  C006  FFDA         	movff	??_gpio_pin_direction_initialize+4,fsr2h
  4864   00141C  5004               	movf	(??_gpio_pin_direction_initialize+2)^0,w,c
  4865   00141E  16DF               	andwf	indf2,f,c
  4866                           
  4867                           ;HAL/GPIO/hal_gpio.c: 58:                 break;
  4868   001420  EF5A  F00A         	goto	l2613
  4869   001424                     l2607:
  4870                           
  4871                           ;HAL/GPIO/hal_gpio.c: 62:                 (*tris_register[pin_config->Port] |= ( (uint8)
      +                           1 << pin_config->Pin));
  4872   001424  5001               	movf	gpio_pin_direction_initialize@pin_config^0,w,c
  4873   001426  6ED9               	movwf	fsr2l,c
  4874   001428  6ADA               	clrf	fsr2h,c
  4875   00142A  50DF               	movf	223,w,c
  4876   00142C  0B07               	andlw	7
  4877   00142E  6E02               	movwf	??_gpio_pin_direction_initialize^0,c
  4878   001430  0E01               	movlw	1
  4879   001432  6E03               	movwf	(??_gpio_pin_direction_initialize+1)^0,c
  4880   001434  2A02               	incf	??_gpio_pin_direction_initialize^0,f,c
  4881   001436  EF1F  F00A         	goto	u1494
  4882   00143A                     u1495:
  4883   00143A  90D8               	bcf	status,0,c
  4884   00143C  3603               	rlcf	(??_gpio_pin_direction_initialize+1)^0,f,c
  4885   00143E                     u1494:
  4886   00143E  2E02               	decfsz	??_gpio_pin_direction_initialize^0,f,c
  4887   001440  EF1D  F00A         	goto	u1495
  4888   001444  5001               	movf	gpio_pin_direction_initialize@pin_config^0,w,c
  4889   001446  6ED9               	movwf	fsr2l,c
  4890   001448  6ADA               	clrf	fsr2h,c
  4891   00144A  30DF               	rrcf	223,w,c
  4892   00144C  32E8               	rrcf	wreg,f,c
  4893   00144E  32E8               	rrcf	wreg,f,c
  4894   001450  0B07               	andlw	7
  4895   001452  0D02               	mullw	2
  4896   001454  50F3               	movf	243,w,c
  4897   001456  0F3C               	addlw	low _tris_register
  4898   001458  6ED9               	movwf	fsr2l,c
  4899   00145A  6ADA               	clrf	fsr2h,c
  4900   00145C  CFDE F004          	movff	postinc2,??_gpio_pin_direction_initialize+2
  4901   001460  CFDD F005          	movff	postdec2,??_gpio_pin_direction_initialize+3
  4902   001464  C004  FFD9         	movff	??_gpio_pin_direction_initialize+2,fsr2l
  4903   001468  C005  FFDA         	movff	??_gpio_pin_direction_initialize+3,fsr2h
  4904   00146C  5003               	movf	(??_gpio_pin_direction_initialize+1)^0,w,c
  4905   00146E  12DF               	iorwf	indf2,f,c
  4906                           
  4907                           ;HAL/GPIO/hal_gpio.c: 64:                 break;
  4908   001470  EF5A  F00A         	goto	l2613
  4909   001474                     l2611:
  4910   001474  5001               	movf	gpio_pin_direction_initialize@pin_config^0,w,c
  4911   001476  6ED9               	movwf	fsr2l,c
  4912   001478  6ADA               	clrf	fsr2h,c
  4913   00147A  BEDF               	btfsc	indf2,7,c
  4914   00147C  EF42  F00A         	goto	u1501
  4915   001480  EF45  F00A         	goto	u1500
  4916   001484                     u1501:
  4917   001484  0E01               	movlw	1
  4918   001486  EF46  F00A         	goto	u1510
  4919   00148A                     u1500:
  4920   00148A  0E00               	movlw	0
  4921   00148C                     u1510:
  4922   00148C  6E02               	movwf	??_gpio_pin_direction_initialize^0,c
  4923   00148E  6A03               	clrf	(??_gpio_pin_direction_initialize+1)^0,c
  4924                           
  4925                           ; Switch on 2 bytes has been partitioned into a top level switch of size 1, and 1 sub-sw
      +                          itches
  4926                           ; Switch size 1, requested type "simple"
  4927                           ; Number of cases is 1, Range of values is 0 to 0
  4928                           ; switch strategies available:
  4929                           ; Name         Instructions Cycles
  4930                           ; simple_byte            4     3 (average)
  4931                           ;	Chosen strategy is simple_byte
  4932   001490  5003               	movf	(??_gpio_pin_direction_initialize+1)^0,w,c
  4933   001492  0A00               	xorlw	0	; case 0
  4934   001494  B4D8               	btfsc	status,2,c
  4935   001496  EF4F  F00A         	goto	l3573
  4936   00149A  EFE3  F009         	goto	l2603
  4937   00149E                     l3573:
  4938                           
  4939                           ; Switch size 1, requested type "simple"
  4940                           ; Number of cases is 2, Range of values is 0 to 1
  4941                           ; switch strategies available:
  4942                           ; Name         Instructions Cycles
  4943                           ; simple_byte            7     4 (average)
  4944                           ;	Chosen strategy is simple_byte
  4945   00149E  5002               	movf	??_gpio_pin_direction_initialize^0,w,c
  4946   0014A0  0A00               	xorlw	0	; case 0
  4947   0014A2  B4D8               	btfsc	status,2,c
  4948   0014A4  EFE7  F009         	goto	l2605
  4949   0014A8  0A01               	xorlw	1	; case 1
  4950   0014AA  B4D8               	btfsc	status,2,c
  4951   0014AC  EF12  F00A         	goto	l2607
  4952   0014B0  EFE3  F009         	goto	l2603
  4953   0014B4                     l2613:
  4954                           
  4955                           ;HAL/GPIO/hal_gpio.c: 75:     return Ret;
  4956   0014B4  5007               	movf	gpio_pin_direction_initialize@Ret^0,w,c
  4957   0014B6  0012               	return		;funcret
  4958   0014B8                     __end_of_gpio_pin_direction_initialize:
  4959                           	callstack 0
  4960                           
  4961                           	psect	rparam
  4962   000000                     
  4963                           	psect	config
  4964                           
  4965                           ; Padding undefined space
  4966   300000                     	org	3145728
  4967   300000  FF                 	db	255
  4968                           
  4969                           ;Config register CONFIG1H @ 0x300001
  4970                           ;	Oscillator Selection bits
  4971                           ;	FOSC = HS, HS oscillator
  4972                           ;	Fail-Safe Clock Monitor Enable bit
  4973                           ;	FCMEN = OFF, Fail-Safe Clock Monitor disabled
  4974                           ;	Internal/External Oscillator Switchover bit
  4975                           ;	IESO = OFF, Oscillator Switchover mode disabled
  4976   300001                     	org	3145729
  4977   300001  02                 	db	2
  4978                           
  4979                           ;Config register CONFIG2L @ 0x300002
  4980                           ;	Power-up Timer Enable bit
  4981                           ;	PWRTEN = OFF, PWRT disabled
  4982                           ;	Brown-out Reset Enable bits
  4983                           ;	BOREN = SBORDIS, Brown-out Reset enabled in hardware only (SBOREN is disabled)
  4984                           ;	Brown Out Reset Voltage bits
  4985                           ;	BORV = 18, VBOR set to 1.8 V nominal
  4986   300002                     	org	3145730
  4987   300002  1F                 	db	31
  4988                           
  4989                           ;Config register CONFIG2H @ 0x300003
  4990                           ;	Watchdog Timer Enable bit
  4991                           ;	WDTEN = OFF, WDT is controlled by SWDTEN bit of the WDTCON register
  4992                           ;	Watchdog Timer Postscale Select bits
  4993                           ;	WDTPS = 32768, 1:32768
  4994   300003                     	org	3145731
  4995   300003  1E                 	db	30
  4996                           
  4997                           ; Padding undefined space
  4998   300004                     	org	3145732
  4999   300004  FF                 	db	255
  5000                           
  5001                           ;Config register CONFIG3H @ 0x300005
  5002                           ;	CCP2 MUX bit
  5003                           ;	CCP2MX = PORTC, CCP2 input/output is multiplexed with RC1
  5004                           ;	PORTB A/D Enable bit
  5005                           ;	PBADEN = ON, PORTB<4:0> pins are configured as analog input channels on Reset
  5006                           ;	Low-Power Timer1 Oscillator Enable bit
  5007                           ;	LPT1OSC = OFF, Timer1 configured for higher power operation
  5008                           ;	HFINTOSC Fast Start-up
  5009                           ;	HFOFST = ON, HFINTOSC starts clocking the CPU without waiting for the oscillator to st
      +                          ablize.
  5010                           ;	MCLR Pin Enable bit
  5011                           ;	MCLRE = ON, MCLR pin enabled; RE3 input pin disabled
  5012   300005                     	org	3145733
  5013   300005  8B                 	db	139
  5014                           
  5015                           ;Config register CONFIG4L @ 0x300006
  5016                           ;	Stack Full/Underflow Reset Enable bit
  5017                           ;	STVREN = ON, Stack full/underflow will cause Reset
  5018                           ;	Single-Supply ICSP Enable bit
  5019                           ;	LVP = ON, Single-Supply ICSP enabled
  5020                           ;	Extended Instruction Set Enable bit
  5021                           ;	XINST = OFF, Instruction set extension and Indexed Addressing mode disabled (Legacy mo
      +                          de)
  5022                           ;	Background Debugger Enable bit
  5023                           ;	DEBUG = OFF, Background debugger disabled, RB6 and RB7 configured as general purpose I
      +                          /O pins
  5024   300006                     	org	3145734
  5025   300006  85                 	db	133
  5026                           
  5027                           ; Padding undefined space
  5028   300007                     	org	3145735
  5029   300007  FF                 	db	255
  5030                           
  5031                           ;Config register CONFIG5L @ 0x300008
  5032                           ;	Code Protection Block 0
  5033                           ;	CP0 = OFF, Block 0 (000800-003FFFh) not code-protected
  5034                           ;	Code Protection Block 1
  5035                           ;	CP1 = OFF, Block 1 (004000-007FFFh) not code-protected
  5036                           ;	Code Protection Block 2
  5037                           ;	CP2 = OFF, Block 2 (008000-00BFFFh) not code-protected
  5038                           ;	Code Protection Block 3
  5039                           ;	CP3 = OFF, Block 3 (00C000-00FFFFh) not code-protected
  5040   300008                     	org	3145736
  5041   300008  0F                 	db	15
  5042                           
  5043                           ;Config register CONFIG5H @ 0x300009
  5044                           ;	Boot Block Code Protection bit
  5045                           ;	CPB = OFF, Boot block (000000-0007FFh) not code-protected
  5046                           ;	Data EEPROM Code Protection bit
  5047                           ;	CPD = OFF, Data EEPROM not code-protected
  5048   300009                     	org	3145737
  5049   300009  C0                 	db	192
  5050                           
  5051                           ;Config register CONFIG6L @ 0x30000A
  5052                           ;	Write Protection Block 0
  5053                           ;	WRT0 = OFF, Block 0 (000800-003FFFh) not write-protected
  5054                           ;	Write Protection Block 1
  5055                           ;	WRT1 = OFF, Block 1 (004000-007FFFh) not write-protected
  5056                           ;	Write Protection Block 2
  5057                           ;	WRT2 = OFF, Block 2 (008000-00BFFFh) not write-protected
  5058                           ;	Write Protection Block 3
  5059                           ;	WRT3 = OFF, Block 3 (00C000h-00FFFFh) not write-protected
  5060   30000A                     	org	3145738
  5061   30000A  0F                 	db	15
  5062                           
  5063                           ;Config register CONFIG6H @ 0x30000B
  5064                           ;	Configuration Register Write Protection bit
  5065                           ;	WRTC = OFF, Configuration registers (300000-3000FFh) not write-protected
  5066                           ;	Boot Block Write Protection bit
  5067                           ;	WRTB = OFF, Boot Block (000000-0007FFh) not write-protected
  5068                           ;	Data EEPROM Write Protection bit
  5069                           ;	WRTD = OFF, Data EEPROM not write-protected
  5070   30000B                     	org	3145739
  5071   30000B  E0                 	db	224
  5072                           
  5073                           ;Config register CONFIG7L @ 0x30000C
  5074                           ;	Table Read Protection Block 0
  5075                           ;	EBTR0 = OFF, Block 0 (000800-003FFFh) not protected from table reads executed in other
      +                           blocks
  5076                           ;	Table Read Protection Block 1
  5077                           ;	EBTR1 = OFF, Block 1 (004000-007FFFh) not protected from table reads executed in other
      +                           blocks
  5078                           ;	Table Read Protection Block 2
  5079                           ;	EBTR2 = OFF, Block 2 (008000-00BFFFh) not protected from table reads executed in other
      +                           blocks
  5080                           ;	Table Read Protection Block 3
  5081                           ;	EBTR3 = OFF, Block 3 (00C000-00FFFFh) not protected from table reads executed in other
      +                           blocks
  5082   30000C                     	org	3145740
  5083   30000C  0F                 	db	15
  5084                           
  5085                           ;Config register CONFIG7H @ 0x30000D
  5086                           ;	Boot Block Table Read Protection bit
  5087                           ;	EBTRB = OFF, Boot Block (000000-0007FFh) not protected from table reads executed in ot
      +                          her blocks
  5088   30000D                     	org	3145741
  5089   30000D  40                 	db	64
  5090                           tosu	equ	0xFFF
  5091                           tosh	equ	0xFFE
  5092                           tosl	equ	0xFFD
  5093                           stkptr	equ	0xFFC
  5094                           pclatu	equ	0xFFB
  5095                           pclath	equ	0xFFA
  5096                           pcl	equ	0xFF9
  5097                           tblptru	equ	0xFF8
  5098                           tblptrh	equ	0xFF7
  5099                           tblptrl	equ	0xFF6
  5100                           tablat	equ	0xFF5
  5101                           prodh	equ	0xFF4
  5102                           prodl	equ	0xFF3
  5103                           indf0	equ	0xFEF
  5104                           postinc0	equ	0xFEE
  5105                           postdec0	equ	0xFED
  5106                           preinc0	equ	0xFEC
  5107                           plusw0	equ	0xFEB
  5108                           fsr0h	equ	0xFEA
  5109                           fsr0l	equ	0xFE9
  5110                           wreg	equ	0xFE8
  5111                           indf1	equ	0xFE7
  5112                           postinc1	equ	0xFE6
  5113                           postdec1	equ	0xFE5
  5114                           preinc1	equ	0xFE4
  5115                           plusw1	equ	0xFE3
  5116                           fsr1h	equ	0xFE2
  5117                           fsr1l	equ	0xFE1
  5118                           bsr	equ	0xFE0
  5119                           indf2	equ	0xFDF
  5120                           postinc2	equ	0xFDE
  5121                           postdec2	equ	0xFDD
  5122                           preinc2	equ	0xFDC
  5123                           plusw2	equ	0xFDB
  5124                           fsr2h	equ	0xFDA
  5125                           fsr2l	equ	0xFD9
  5126                           status	equ	0xFD8

Data Sizes:
    Strings     92
    Constant    16
    Data        46
    BSS         26
    Persistent  0
    Stack       0

Auto Spaces:
    Space          Size  Autos    Used
    COMRAM           95     49      91
    BANK0           160      0      30
    BANK1           256      0       0
    BANK2           256      0       0
    BANK3           256      0       0
    BANK4           256      0       0
    BANK5           256      0       0
    BANK6           256      0       0
    BANK7           256      0       0
    BANK8           256      0       0
    BANK9           256      0       0
    BANK10          256      0       0
    BANK11          256      0       0
    BANK12          256      0       0
    BANK13          256      0       0
    BANK14          256      0       0
    BANK15           96      0       0

Pointer List with Targets:

    dc_motor_initialize@obj	PTR const struct . size(1) Largest target is 2
		 -> motor_1(COMRAM[2]), 

    dc_motor_move_right@obj	PTR const struct . size(1) Largest target is 2
		 -> motor_1(COMRAM[2]), 

    dc_motor_stop@obj	PTR const struct . size(1) Largest target is 2
		 -> motor_1(COMRAM[2]), 

    f$.$buffer	PTR unsigned char  size(2) Largest target is 0

    f$.$source	PTR const unsigned char  size(2) Largest target is 0

    gpio_pin_direction_initialize@pin_config	PTR const struct . size(1) Largest target is 8
		 -> dc_motor_initialize@pin_1(COMRAM[1]), dc_motor_initialize@pin_2(COMRAM[1]), key1(BANK0[8]), key1$keypad_col_pins(BANK0[4]), 
		 -> key1$keypad_row_pins(BANK0[4]), lcd1(COMRAM[6]), lcd1$lcd_data(COMRAM[4]), led_initialize@pin_obj(COMRAM[1]), 

    gpio_pin_initialize@pin_config	PTR const struct . size(1) Largest target is 8
		 -> dc_motor_initialize@pin_1(COMRAM[1]), dc_motor_initialize@pin_2(COMRAM[1]), key1(BANK0[8]), key1$keypad_row_pins(BANK0[4]), 
		 -> lcd1(COMRAM[6]), lcd1$lcd_data(COMRAM[4]), led_initialize@pin_obj(COMRAM[1]), 

    gpio_pin_read_logic@logic	PTR enum E3232 size(1) Largest target is 1
		 -> keypad_get_value@column_logic(COMRAM[1]), 

    gpio_pin_read_logic@pin_config	PTR const struct . size(1) Largest target is 8
		 -> key1(BANK0[8]), key1$keypad_col_pins(BANK0[4]), 

    gpio_pin_write_logic@pin_config	PTR const struct . size(1) Largest target is 8
		 -> dc_motor_initialize@pin_1(COMRAM[1]), dc_motor_initialize@pin_2(COMRAM[1]), dc_motor_move_left@pin_1(COMRAM[1]), dc_motor_move_left@pin_2(COMRAM[1]), 
		 -> dc_motor_move_right@pin_1(COMRAM[1]), dc_motor_move_right@pin_2(COMRAM[1]), dc_motor_stop@pin_1(COMRAM[1]), dc_motor_stop@pin_2(COMRAM[1]), 
		 -> key1(BANK0[8]), key1$keypad_row_pins(BANK0[4]), lcd1(COMRAM[6]), lcd1$lcd_data(COMRAM[4]), 
		 -> led_initialize@pin_obj(COMRAM[1]), led_off@pin_obj(COMRAM[1]), led_on@pin_obj(COMRAM[1]), 

    keypad_get_value@obj	PTR const struct . size(1) Largest target is 8
		 -> key1(BANK0[8]), 

    keypad_get_value@value	PTR unsigned char  size(1) Largest target is 4
		 -> Check_Password@Keypad_Value(COMRAM[4]), Set_Password@Keypad_Value(COMRAM[4]), 

    keypad_initialize@obj	PTR const struct . size(1) Largest target is 8
		 -> key1(BANK0[8]), 

    lat_register	PTR volatile unsigned char [5] size(2) Largest target is 1
		 -> LATA(BITBIGSFRlhl[1]), LATB(BITBIGSFRlhh[1]), LATC(BITBIGSFRlhh[1]), LATD(BITBIGSFRlhh[1]), 
		 -> LATE(BITBIGSFRlhh[1]), 

    lcd_4bit_initialze@lcd	PTR const struct . size(1) Largest target is 6
		 -> lcd1(COMRAM[6]), 

    lcd_4bit_send_char_data@lcd	PTR const struct . size(1) Largest target is 6
		 -> lcd1(COMRAM[6]), 

    lcd_4bit_send_command@lcd	PTR const struct . size(1) Largest target is 6
		 -> lcd1(COMRAM[6]), 

    lcd_4bit_send_enable_signal@lcd	PTR const struct . size(1) Largest target is 6
		 -> lcd1(COMRAM[6]), 

    lcd_4bit_send_string_data@lcd	PTR const struct . size(1) Largest target is 6
		 -> lcd1(COMRAM[6]), 

    lcd_4bit_send_string_data@str_data	PTR unsigned char  size(2) Largest target is 20
		 -> Check_Password@Keypad_Value(COMRAM[4]), STR_10(CODE[20]), STR_11(CODE[2]), STR_12(CODE[2]), 
		 -> STR_13(CODE[18]), STR_14(CODE[2]), STR_6(CODE[17]), STR_7(CODE[19]), 
		 -> STR_8(CODE[10]), STR_9(CODE[8]), 

    lcd_4bit_send_string_data_pos@lcd	PTR const struct . size(1) Largest target is 6
		 -> lcd1(COMRAM[6]), 

    lcd_4bit_send_string_data_pos@str_data	PTR unsigned char  size(1) Largest target is 19
		 -> STR_11(CODE[2]), STR_14(CODE[2]), STR_6(CODE[17]), STR_7(CODE[19]), 
		 -> STR_8(CODE[10]), 

    lcd_4bit_set_cursor@lcd	PTR const struct . size(1) Largest target is 6
		 -> lcd1(COMRAM[6]), 

    lcd_send_4bit@lcd	PTR const struct . size(1) Largest target is 6
		 -> lcd1(COMRAM[6]), 

    led_initialize@led	PTR const struct . size(1) Largest target is 1
		 -> led_1(COMRAM[1]), 

    led_off@led	PTR const struct . size(1) Largest target is 1
		 -> led_1(COMRAM[1]), 

    led_on@led	PTR const struct . size(1) Largest target is 1
		 -> led_1(COMRAM[1]), 

    port_register	PTR volatile unsigned char [5] size(2) Largest target is 1
		 -> PORTA(BITBIGSFRllll[1]), PORTB(BITBIGSFRlhl[1]), PORTC(BITBIGSFRlhl[1]), PORTD(BITBIGSFRlhl[1]), 
		 -> PORTE(BITBIGSFRlhl[1]), 

    S1565$buffer	PTR unsigned char  size(2) Largest target is 0

    S1565$source	PTR const unsigned char  size(2) Largest target is 0

    sp__memset	PTR void  size(2) Largest target is 0

    tris_register	PTR volatile unsigned char [5] size(2) Largest target is 1
		 -> TRISA(BITBIGSFRllll[1]), TRISB(BITBIGSFRhlll[1]), TRISC(BITBIGSFRhlll[1]), TRISD(BITBIGSFRhlll[1]), 
		 -> TRISE(BITBIGSFRhlll[1]), 

    vfprintf$0	PTR struct _IO_FILE size(1) Largest target is 12
		 -> sprintf@f(COMRAM[12]), 

    vfprintf$1	PTR const unsigned char  size(1) Largest target is 5
		 -> STR_1(CODE[3]), STR_2(CODE[3]), STR_3(CODE[3]), STR_4(CODE[5]), 
		 -> STR_5(CODE[5]), 

    vfprintf$2	PTR PTR void  size(1) Largest target is 1
		 -> sprintf@ap(COMRAM[1]), 


Critical Paths under _main in COMRAM

    _main->_Check_Password
    _led_on->_gpio_pin_write_logic
    _led_off->_gpio_pin_write_logic
    _dc_motor_stop->_gpio_pin_write_logic
    _dc_motor_move_right->_gpio_pin_write_logic
    _Welcom->_lcd_4bit_send_string_data
    _Set_Password->_lcd_4bit_send_string_data_pos
    _Read_Password_EEPROM->_DATAEE_ReadByte
    _Check_Password->_lcd_4bit_send_string_data_pos
    _lcd_4bit_send_string_data_pos->_lcd_4bit_send_string_data
    _lcd_4bit_set_cursor->_lcd_4bit_send_command
    _lcd_4bit_send_string_data->_lcd_4bit_send_char_data
    _lcd_4bit_send_char_data->_lcd_send_4bit
    _keypad_get_value->_gpio_pin_write_logic
    _APP_Init->_lcd_4bit_initialze
    _led_initialize->_gpio_pin_initialize
    _lcd_4bit_initialze->_lcd_4bit_send_command
    _lcd_4bit_send_command->_lcd_send_4bit
    _lcd_send_4bit->_gpio_pin_write_logic
    _lcd_4bit_send_enable_signal->_gpio_pin_write_logic
    _keypad_initialize->_gpio_pin_initialize
    _dc_motor_initialize->_gpio_pin_initialize
    _gpio_pin_initialize->_gpio_pin_write_logic

Critical Paths under _main in BANK0

    None.

Critical Paths under _main in BANK1

    None.

Critical Paths under _main in BANK2

    None.

Critical Paths under _main in BANK3

    None.

Critical Paths under _main in BANK4

    None.

Critical Paths under _main in BANK5

    None.

Critical Paths under _main in BANK6

    None.

Critical Paths under _main in BANK7

    None.

Critical Paths under _main in BANK8

    None.

Critical Paths under _main in BANK9

    None.

Critical Paths under _main in BANK10

    None.

Critical Paths under _main in BANK11

    None.

Critical Paths under _main in BANK12

    None.

Critical Paths under _main in BANK13

    None.

Critical Paths under _main in BANK14

    None.

Critical Paths under _main in BANK15

    None.

Call Graph Tables:

 ---------------------------------------------------------------------------------
 (Depth) Function   	        Calls       Base Space   Used Autos Params    Refs
 ---------------------------------------------------------------------------------
 (0) _main                                                 2     2      0  256865
                                             47 COMRAM     2     2      0
                           _APP_Init
                     _Check_Password
                    _DATAEE_ReadByte
                   _DATAEE_WriteByte
               _Read_Password_EEPROM
                  _SYSTEM_Initialize
                       _Set_Password
                             _Welcom
                _dc_motor_move_right
                      _dc_motor_stop
              _lcd_4bit_send_command
      _lcd_4bit_send_string_data_pos
                            _led_off
                             _led_on
 ---------------------------------------------------------------------------------
 (1) _led_on                                               4     3      1    3636
                                              8 COMRAM     4     3      1
               _gpio_pin_write_logic
 ---------------------------------------------------------------------------------
 (1) _led_off                                              4     3      1    3636
                                              8 COMRAM     4     3      1
               _gpio_pin_write_logic
 ---------------------------------------------------------------------------------
 (1) _dc_motor_stop                                        5     4      1    3811
                                              8 COMRAM     5     4      1
               _gpio_pin_write_logic
 ---------------------------------------------------------------------------------
 (1) _dc_motor_move_right                                  5     4      1    3735
                                              8 COMRAM     5     4      1
               _gpio_pin_write_logic
 ---------------------------------------------------------------------------------
 (1) _Welcom                                               3     3      0   28563
                                             24 COMRAM     3     3      0
              _lcd_4bit_send_command
          _lcd_4bit_send_string_data
 ---------------------------------------------------------------------------------
 (1) _Set_Password                                        17    15      2   65045
                                             29 COMRAM    17    15      2
                             ___wmul
                   _keypad_get_value
              _lcd_4bit_send_command
          _lcd_4bit_send_string_data
      _lcd_4bit_send_string_data_pos
 ---------------------------------------------------------------------------------
 (1) _SYSTEM_Initialize                                    0     0      0       0
              _OSCILLATOR_Initialize
             _PIN_MANAGER_Initialize
 ---------------------------------------------------------------------------------
 (2) _PIN_MANAGER_Initialize                               0     0      0       0
 ---------------------------------------------------------------------------------
 (2) _OSCILLATOR_Initialize                                0     0      0       0
 ---------------------------------------------------------------------------------
 (1) _Read_Password_EEPROM                                 7     5      2     297
                                              2 COMRAM     7     5      2
                    _DATAEE_ReadByte
 ---------------------------------------------------------------------------------
 (2) _DATAEE_ReadByte                                      2     0      2     272
                                              0 COMRAM     2     0      2
 ---------------------------------------------------------------------------------
 (1) _DATAEE_WriteByte                                     4     1      3     697
                                              0 COMRAM     4     1      3
 ---------------------------------------------------------------------------------
 (1) _Check_Password                                      18    16      2   65289
                                             29 COMRAM    18    16      2
                             ___wmul
                   _keypad_get_value
              _lcd_4bit_send_command
          _lcd_4bit_send_string_data
      _lcd_4bit_send_string_data_pos
 ---------------------------------------------------------------------------------
 (1) _lcd_4bit_send_string_data_pos                        5     1      4   30875
                                             24 COMRAM     5     1      4
          _lcd_4bit_send_string_data
                _lcd_4bit_set_cursor
 ---------------------------------------------------------------------------------
 (2) _lcd_4bit_set_cursor                                  6     3      3   15989
                                             17 COMRAM     6     3      3
              _lcd_4bit_send_command
 ---------------------------------------------------------------------------------
 (2) _lcd_4bit_send_string_data                            7     4      3   13186
                                             17 COMRAM     7     4      3
            _lcd_4bit_send_char_data
 ---------------------------------------------------------------------------------
 (3) _lcd_4bit_send_char_data                              3     1      2   12092
                                             14 COMRAM     3     1      2
               _gpio_pin_write_logic
        _lcd_4bit_send_enable_signal
                      _lcd_send_4bit
 ---------------------------------------------------------------------------------
 (2) _keypad_get_value                                     8     6      2    4506
                                              8 COMRAM     8     6      2
                _gpio_pin_read_logic
               _gpio_pin_write_logic
 ---------------------------------------------------------------------------------
 (3) _gpio_pin_read_logic                                  7     5      2     330
                                              0 COMRAM     7     5      2
 ---------------------------------------------------------------------------------
 (2) ___wmul                                               6     2      4     963
                                              0 COMRAM     6     2      4
 ---------------------------------------------------------------------------------
 (1) _APP_Init                                             0     0      0   35725
                _dc_motor_initialize
                  _keypad_initialize
                 _lcd_4bit_initialze
                     _led_initialize
 ---------------------------------------------------------------------------------
 (2) _led_initialize                                       4     3      1    4917
                                             11 COMRAM     4     3      1
                _gpio_pin_initialize
 ---------------------------------------------------------------------------------
 (2) _lcd_4bit_initialze                                   4     3      1   20437
                                             17 COMRAM     4     3      1
                _gpio_pin_initialize
              _lcd_4bit_send_command
 ---------------------------------------------------------------------------------
 (3) _lcd_4bit_send_command                                3     1      2   15284
                                             14 COMRAM     3     1      2
               _gpio_pin_write_logic
        _lcd_4bit_send_enable_signal
                      _lcd_send_4bit
 ---------------------------------------------------------------------------------
 (4) _lcd_send_4bit                                        6     4      2    4205
                                              8 COMRAM     6     4      2
               _gpio_pin_write_logic
 ---------------------------------------------------------------------------------
 (4) _lcd_4bit_send_enable_signal                          2     1      1    3811
                                              8 COMRAM     2     1      1
               _gpio_pin_write_logic
 ---------------------------------------------------------------------------------
 (2) _keypad_initialize                                    4     3      1    5345
                                             11 COMRAM     4     3      1
      _gpio_pin_direction_initialize
                _gpio_pin_initialize
 ---------------------------------------------------------------------------------
 (2) _dc_motor_initialize                                  5     4      1    5026
                                             11 COMRAM     5     4      1
                _gpio_pin_initialize
 ---------------------------------------------------------------------------------
 (3) _gpio_pin_initialize                                  3     2      1    4686
                                              8 COMRAM     3     2      1
      _gpio_pin_direction_initialize
               _gpio_pin_write_logic
 ---------------------------------------------------------------------------------
 (2) _gpio_pin_write_logic                                 8     6      2    3415
                                              0 COMRAM     8     6      2
 ---------------------------------------------------------------------------------
 (4) _gpio_pin_direction_initialize                        7     6      1     353
                                              0 COMRAM     7     6      1
 ---------------------------------------------------------------------------------
 Estimated maximum stack depth 4
 ---------------------------------------------------------------------------------

 Call Graph Graphs:

 _main (ROOT)
   _APP_Init
     _dc_motor_initialize
       _gpio_pin_initialize
         _gpio_pin_direction_initialize
         _gpio_pin_write_logic
     _keypad_initialize
       _gpio_pin_direction_initialize
       _gpio_pin_initialize
     _lcd_4bit_initialze
       _gpio_pin_initialize
       _lcd_4bit_send_command
         _gpio_pin_write_logic
         _lcd_4bit_send_enable_signal
           _gpio_pin_write_logic
         _lcd_send_4bit
           _gpio_pin_write_logic
     _led_initialize
       _gpio_pin_initialize
   _Check_Password
     ___wmul
     _keypad_get_value
       _gpio_pin_read_logic
       _gpio_pin_write_logic
     _lcd_4bit_send_command
     _lcd_4bit_send_string_data
       _lcd_4bit_send_char_data
         _gpio_pin_write_logic
         _lcd_4bit_send_enable_signal
         _lcd_send_4bit
     _lcd_4bit_send_string_data_pos
       _lcd_4bit_send_string_data
       _lcd_4bit_set_cursor
         _lcd_4bit_send_command
   _DATAEE_ReadByte
   _DATAEE_WriteByte
   _Read_Password_EEPROM
     _DATAEE_ReadByte
   _SYSTEM_Initialize
     _OSCILLATOR_Initialize
     _PIN_MANAGER_Initialize
   _Set_Password
     ___wmul
     _keypad_get_value
     _lcd_4bit_send_command
     _lcd_4bit_send_string_data
     _lcd_4bit_send_string_data_pos
   _Welcom
     _lcd_4bit_send_command
     _lcd_4bit_send_string_data
   _dc_motor_move_right
     _gpio_pin_write_logic
   _dc_motor_stop
     _gpio_pin_write_logic
   _lcd_4bit_send_command
   _lcd_4bit_send_string_data_pos
   _led_off
     _gpio_pin_write_logic
   _led_on
     _gpio_pin_write_logic

 Address spaces:
Name               Size   Autos  Total    Cost      Usage
BIGRAM             F5F      0       0      48        0.0%
EEDATA             400      0       0       0        0.0%
BITBANK14          100      0       0      32        0.0%
BANK14             100      0       0      33        0.0%
BITBANK13          100      0       0      30        0.0%
BANK13             100      0       0      31        0.0%
BITBANK12          100      0       0      28        0.0%
BANK12             100      0       0      29        0.0%
BITBANK11          100      0       0      26        0.0%
BANK11             100      0       0      27        0.0%
BITBANK10          100      0       0      24        0.0%
BANK10             100      0       0      25        0.0%
BITBANK9           100      0       0      22        0.0%
BANK9              100      0       0      23        0.0%
BITBANK8           100      0       0      20        0.0%
BANK8              100      0       0      21        0.0%
BITBANK7           100      0       0      18        0.0%
BANK7              100      0       0      19        0.0%
BITBANK6           100      0       0      16        0.0%
BANK6              100      0       0      17        0.0%
BITBANK5           100      0       0      14        0.0%
BANK5              100      0       0      15        0.0%
BITBANK4           100      0       0      12        0.0%
BANK4              100      0       0      13        0.0%
BITBANK3           100      0       0      10        0.0%
BANK3              100      0       0      11        0.0%
BITBANK2           100      0       0       8        0.0%
BANK2              100      0       0       9        0.0%
BITBANK1           100      0       0       6        0.0%
BANK1              100      0       0       7        0.0%
BITBANK0            A0      0       0       4        0.0%
BANK0               A0      0      1E       5       18.8%
BITBANK15           60      0       0      34        0.0%
BANK15              60      0       0      35        0.0%
BITCOMRAM           5F      0       0       0        0.0%
COMRAM              5F     31      5B       1       95.8%
BITBIGSFRhllhhh     28      0       0      39        0.0%
BITBIGSFRhlh        1D      0       0      38        0.0%
BITBIGSFRllll       1C      0       0      46        0.0%
BITBIGSFRhhh         7      0       0      36        0.0%
BITBIGSFRhllhll      5      0       0      41        0.0%
BITBIGSFRhllhlh      4      0       0      40        0.0%
BITBIGSFRlhh         4      0       0      43        0.0%
BITBIGSFRlhl         4      0       0      44        0.0%
BITBIGSFRhlll        4      0       0      42        0.0%
BITBIGSFRhhl         2      0       0      37        0.0%
BITBIGSFRlllh        1      0       0      45        0.0%
BIGSFR               0      0       0     200        0.0%
BITSFR               0      0       0     200        0.0%
SFR                  0      0       0     200        0.0%
STACK                0      0       0       2        0.0%
NULL                 0      0       0       0        0.0%
ABS                  0      0      79      47        0.0%
DATA                 0      0      79       3        0.0%
CODE                 0      0       0       0        0.0%


Microchip Technology PIC18 Macro Assembler V2.45 build 20230818022343 
Symbol Table                                                                                   Sat Oct 05 18:56:32 2024

                         ?_lcd_send_4bit 0009                                       l21 2030  
                                     l35 18C4                                       l73 21AE  
                                     l68 17DA                                       l93 1D5C  
                                     l78 2150                      ___wmul@multiplicand 0003  
                       ??_Check_Password 0020                                      l100 2200  
                                    l231 1E0C                                      l305 14B6  
                                    l242 1FCC                                      l330 1CA4  
                                    l323 15D4                                      l411 22F0  
                                    l252 1F62                                      l318 15D2  
                                    l190 20F2                                      l247 1EF4  
                                    l344 1E86                                      l601 1372  
                                    l425 2390                                      l602 1374  
                                    l611 1BE4                                      l195 2286  
                                    l428 239A                                      l616 1A58  
                                    l490 2374                                      l626 198E  
                                    l572 231A                                      l484 222A  
                                    l564 121C                                      l629 2340  
                                    l486 2238                                      l487 2244  
                                    l591 22C0                                      l579 1B22  
                                    l588 16EC            gpio_pin_initialize@pin_config 0009  
                   keypad_initialize@obj 000C                     keypad_initialize@ret 000D  
                                    _ret 005A      __end_of_lcd_4bit_send_enable_signal 2288  
            _lcd_4bit_send_enable_signal 2246                                      wreg 0FE8  
           lcd_4bit_send_string_data@Ret 0017             lcd_4bit_send_string_data@lcd 0012  
                                   l3101 1AB6                                     l3111 1ACC  
                                   l3103 1AB8                                     l3031 1E98  
                                   l3121 15D6                                     l3113 1ADA  
                                   l3105 1AC8                                     l3201 19EC  
                                   l3041 1EF2                                     l3033 1EA0  
                                   l3131 1638                                     l3123 15EA  
                                   l3115 1AF4                                     l3211 1A48  
                                   l3203 1A06                                     l3051 1F40  
                                   l3035 1ED2                                     l3061 2202  
                                   l1701 22DE                                     l3141 168E  
                                   l3133 1650                                     l3125 1600  
                                   l3117 1AF6                                     l3205 1A26  
                                   l3213 1A56                                     l3221 18DE  
                                   l3053 1F50                                     l3045 1EF6  
                                   l3037 1EE2                                     l3029 1E88  
                                   l3071 221A                                     l3063 220A  
                                   l3151 229C                                     l1703 22E4  
                                   l3143 16E4                                     l3135 1666  
                                   l3127 1616                                     l3119 1B06  
                                   l3207 1A28                                     l3231 195C  
                                   l3223 1910                                     l3055 1F52  
                                   l3047 1F06                                     l3039 1EE4  
                                   l2601 13A6                                     l3161 1246  
                                   l3081 2228                                     l3073 221C  
                                   l3065 2210                                     l3153 22B8  
                                   l1705 22EE                                     l3137 1668  
                                   l3129 1628                                     l3209 1A3C  
                                   l3233 195E                                     l3225 1912  
                                   l3217 18C6                                     l3057 1F60  
                                   l3049 1F0E                                     l2611 1474  
                                   l2603 13C6                                     l3083 22F2  
                                   l3171 12A2                                     l3163 1254  
                                   l3075 221E                                     l3067 2214  
                                   l3147 2288                                     l1707 2392  
                                   l3139 167E                                     l3091 1A8A  
                                   l3235 1972                                     l3227 1922  
                                   l3219 18D6                                     l2605 13CE  
                                   l2613 14B4                                     l2621 2152  
                                   l2701 1CCC                                     l3181 12F8  
                                   l3173 12BA                                     l3165 126A  
                                   l3157 1224                                     l3077 2220  
                                   l3069 2218                                     l3149 2288  
                                   l3085 1A5A                                     l3237 197E  
                                   l3229 193C                                     l3501 1104  
                                   l2607 1424                                     l2551 1510  
                                   l2543 14B8                                     l2623 2162  
                                   l2631 20F4                                     l2711 1D5A  
                                   l2703 1CD4                                     l3183 134E  
                                   l3175 12D0                                     l3167 1280  
                                   l3159 1238                                     l3079 2224  
                                   l3087 1A5A                                     l3191 1990  
                                   l3239 198C                                     l3511 1140  
                                   l3503 1110                                     l2553 1520  
                                   l2545 14CC                                     l2641 1E0E  
                                   l2625 216A                                     l2801 1702  
                                   l2633 2104                                     l2705 1CE0  
                                   l3185 1366                                     l3177 12D2  
                                   l3169 1292                                     l3097 1A8E  
                                   l3089 1A70                                     l3193 19A0  
                                   l3521 118E                                     l3513 114E  
                                   l3505 1112                                     l2555 1570  
                                   l2547 14E8                                     l2651 1E84  
                                   l2643 1E1E                                     l2731 200A  
                                   l2715 1FCE                                     l2563 2094  
                                   l2627 21AC                                     l2811 1726  
                                   l2803 170A                                     l2635 210C  
                                   l2707 1D1A                                     l3187 136E  
                                   l3179 12E8                                     l3099 1A9C  
                                   l3195 19A8                                     l3531 11D4  
                                   l3523 1198                                     l3515 1164  
                                   l3507 1122                                     l2557 1580  
                                   l2549 1508                                     l2645 1E3A  
                                   l2741 201E                                     l2725 1FEE  
                                   l2717 1FDE                                     l2573 20B4  
                                   l2565 20A8                                     l2821 175E  
                                   l2813 1730                                     l2805 1722  
                                   l2661 1C26                                     l2637 214E  
                                   l2709 1D1C                                     l3197 19DA  
                                   l3533 11FE                                     l3517 116E  
                                   l3525 11A0                                     l3509 1130  
                                   l2647 1E5A                                     l2727 1FF8  
                                   l2743 202E                                     l2719 1FE6  
                                   l2591 2274                                     l2583 2246  
                                   l2575 20DE                                     l2567 20B0  
                                   l2831 17A6                                     l2823 1778  
                                   l2815 1732                                     l2911 1F7C  
                                   l2663 1C46                                     l2655 1BE6  
                                   l2751 17FC                                     l2671 1D5E  
                                   l1695 22C2                                     l3199 19DC  
                                   l3527 11B0                                     l3519 1178  
                                   l2649 1E62                                     l2737 200E  
                                   l2729 1FFA                                     l2593 2284  
                                   l2585 2256                                     l2577 20E0  
                                   l2833 17B2                                     l2825 1782  
                                   l2817 1742                                     l2913 1FAE  
                                   l2665 1C4E                                     l2657 1BFA  
                                   l2753 1804                                     l2681 1DA8  
                                   l2673 1D72                                     l1697 22DA  
                                   l1873 2388                                     l3529 11BE  
                                   l3481 1086                                     l2739 201C  
                                   l2587 225E                                     l2579 20F0  
                                   l2835 17BE                                     l2827 178E  
                                   l2819 1752                                     l2915 1FBE  
                                   l2907 1F64                                     l2667 1CA2  
                                   l2659 1C0A                                     l2771 1838  
                                   l2747 17DC                                     l3571 1DE4  
                                   l2683 1DBC                                     l2675 1D7A  
                                   l2851 21E8                                     l2843 21B0  
                                   l2931 236C                                     l2923 235E  
                                   l1699 22DC                                     l3491 10C4  
                                   l3483 108A                                     l3475 106E  
                                   l3573 149E                                     l2597 1376  
                                   l2941 1B24                                     l2589 226C  
                                   l2837 17CA                                     l2829 179A  
                                   l2917 1FC0                                     l2909 1F74  
                                   l2781 185C                                     l2773 1846  
                                   l2765 1818                                     l2749 17EC  
                                   l2677 1D80                                     l2853 21FE  
                                   l2845 21C0                                     l2933 236E  
                                   l2925 2364                                     l3493 10D6  
                                   l3485 1098                                     l3477 107E  
                                   l2599 138A                                     l2951 1B80  
                                   l2943 1B34                                     l2839 17D8  
                                   l2919 1FCA                                     l2791 18B0  
                                   l2783 186E                                     l2775 1858  
                                   l2767 1826                                     l2759 1814  
                                   l2679 1D94                                     l2687 1DD0  
                                   l2847 21D0                                     l2935 2370  
                                   l2927 2368                                     l3487 10A8  
                                   l3495 10DE                                     l3479 1082  
                                   l2961 1BD8                                     l2953 1B88  
                                   l2945 1B3C                                     l2793 18B2  
                                   l2785 187E                                     l2769 1828  
                                   l2697 1CA6                                     l2689 1E0A  
                                   l2849 21D8                                     l2937 2372  
                                   l2929 236A                                     l3497 10F0  
                                   l3489 10B4                                     l2955 1BA2  
                                   l2947 1B6E                                     l2963 1BE2  
                                   l2787 189E                                     l2795 18C2  
                                   l2699 1CBA                                     l3499 10FC  
                                   l2957 1BC2                                     l2949 1B70  
                                   l2789 18A0                                     l2959 1BC4  
                                   l2799 16EE                                     l2967 231C  
                                   l2969 2338                                     STR_1 1066  
                                   STR_4 105C                                     STR_5 1061  
                                   STR_6 1027                                     STR_7 1025  
                                   STR_8 104A                                     STR_9 1054  
                                   u2010 2238                                     u2011 2234  
                                   u2100 19A0                                     u2101 199C  
                                   u2005 1F4E                                     u2030 1AC8  
                                   u2031 1AC4                                     u2007 1F50  
                                   u2040 1B06                                     u2025 2242  
                                   u2041 1B02                                     u1410 20A8  
                                   u2026 2244                                     u2050 1650  
                                   u2130 18D6                                     u1411 20A4  
                                   u2051 164C                                     u2115 19EA  
                                   u2131 18D2                                     u1500 148A  
                                   u1404 159A                                     u1340 14CC  
                                   u2060 168E                                     u1501 1484  
                                   u1405 1596                                     u1341 14C8  
                                   u2061 168A                                     u2125 1A3A  
                                   u2117 19EC                                     _LATA 0F89  
                                   u1510 148C                                     u1350 14E8  
                                   u1430 20F0                                     u2070 12BA  
                                   _LATB 0F8A                                     u1351 14E4  
                                   u1431 20EC                                     u2071 12B6  
                                   u2127 1A3C                                     _LATC 0F8B  
                                   u1360 1508                                     u1440 2256  
                                   u1424 20CC                                     u1520 2162  
                                   u1600 1C46                                     u2080 12F8  
                                   _LATD 0F8C                                     u1361 1504  
                                   u1441 2252                                     u1425 20C8  
                                   u1521 215E                                     u1601 1C42  
                                   u2081 12F4                                     u2145 1920  
                                   _LATE 0F8D                                     u1450 138A  
                                   u1370 1520                                     u1530 2104  
                                   u2090 1366                                     u1451 1386  
                                   u1371 151C                                     u1531 2100  
                                   u2091 1362                                     u2155 1970  
                                   u2147 1922                                     u1460 13A6  
                                   u1540 1E1E                                     u1700 202E  
                                   u1620 1D72                                     u1461 13A2  
                                   u1541 1E1A                                     u1701 202A  
                                   u1621 1D6E                                     u2157 1972  
                                   u1470 13C6                                     u1390 1580  
                                   u1550 1E3A                                     u1614 1C96  
                                   u1710 17EC                                     u1630 1CBA  
                                   u2350 10A8                                     u1471 13C2  
                                   u1391 157C                                     u1551 1E36  
                                   u1615 1C92                                     u1711 17E8  
                                   u1631 1CB6                                     u2351 10A4  
                                   u1384 153A                                     u1560 1E5A  
                                   u1720 17FC                                     u1640 1CCC  
                                   u1800 21D0                                     u2360 10F0  
                                   u1385 1536                                     u1561 1E56  
                                   u1721 17F8                                     u1641 1CC8  
                                   u1801 21CC                                     u2361 10EC  
                                   u1570 1BFA                                     u1730 1838  
                                   u1650 1D12                                     u2370 1140  
                                   u2507 1748                                     u1571 1BF6  
                                   u1731 1834                                     u2427 1182  
                                   u2371 113C                                     u1484 13E8  
                                   u1580 1C0A                                     u1740 187E  
                                   u1660 1D4A                                     u2380 11B0  
                                   u1485 13E4                                     u2517 1764  
                                   u1581 1C06                                     u1741 187A  
                                   u2437 1208                                     u2381 11AC  
                                   u1494 143E                                     u1590 1C26  
                                   u1750 18B0                                     u1670 1D5A  
                                   u1495 143A                                     u2527 177A  
                                   u1591 1C22                                     u1751 18AC  
                                   u1671 1D56                                     u2447 1A7A  
                                   u1680 1FDE                                     u1760 18C2  
                                   u1905 1BD6                                     u1681 1FDA  
                                   u2537 226E                                     u1761 18BE  
                                   u1657 1D08                                     u2457 1AA6  
                                   u1690 200A                                     u1770 1702  
                                   u1907 1BD8                                     u1691 2006  
                                   u1771 16FE                                     u1667 1D40  
                                   u2467 1AE4                                     u1780 1742  
                                   u1860 1F74                                     u1781 173E  
                                   u1861 1F70                                     u2477 1672  
                                   u1790 21C0                                     u1791 21BC  
                                   u2487 12DC                                     u1880 1B34  
                                   u1881 1B30                                     u2497 184C  
                                   u1970 1E98                                     u1875 1FBC  
                                   u1971 1E94                                     u1877 1FBE  
                                   u1990 1F06                                     u1895 1B7E  
                                   u1991 1F02                                     u1897 1B80  
                                   u1985 1EE0                                     u1987 1EE2  
                                   _WPUB 0F7C            ??_lcd_4bit_send_enable_signal 000A  
                                   _lcd1 0046                                     _key1 006A  
                                   _main 106E                                     fsr0h 0FEA  
                                   fsr1h 0FE2                                     indf0 0FEF  
                                   fsr2h 0FDA                                     fsr0l 0FE9  
                                   indf1 0FE7                                     indf2 0FDF  
                                   fsr1l 0FE1                                     fsr2l 0FD9  
                 __end_of_led_initialize 1FCE             keypad_get_value@rows_counter 000F  
                                   prodh 0FF4                                     prodl 0FF3  
                                   start 0000                             ___param_bank 0000  
                  _lcd_4bit_send_command 2152                   dc_motor_initialize@obj 000C  
                 dc_motor_initialize@ret 000E                     _gpio_pin_write_logic 14B8  
                       __end_of_APP_Init 231C            __end_of_OSCILLATOR_Initialize 239C  
                                  ?_main 0001                                    _EEADR 0FA9  
              _lcd_4bit_send_string_data 1CA6                                    STR_10 1011  
                                  STR_11 1069                                    STR_12 106B  
                                  STR_13 1038                                    STR_14 1069  
                                  _ANSEL 0F7E                                    _PORTA 0F80  
                                  _PORTB 0F81                                    _PORTC 0F82  
                                  _PORTD 0F83                                    _PORTE 0F84  
                                  _TRISA 0F92                                    _TRISB 0F93  
                                  _TRISC 0F94                                    _TRISD 0F95  
                                  _TRISE 0F96                lcd_4bit_set_cursor@coulmn 0014  
               __end_of_keypad_get_value 18C6                          __end_of_led_off 1F64  
                        _DATAEE_ReadByte 235E                                    _led_1 005B  
                                  tablat 0FF5    __end_of_lcd_4bit_send_string_data_pos 2202  
          _lcd_4bit_send_string_data_pos 21B0                                    status 0FD8  
                        ?_led_initialize 000C           ?_gpio_pin_direction_initialize 0001  
                        ??_lcd_send_4bit 000B                          __initialization 2032  
                    keypad_get_value@obj 0009                      keypad_get_value@ret 000C  
                           __end_of_main 1224            gpio_pin_read_logic@pin_config 0001  
                  ?_gpio_pin_write_logic 0001                 gpio_pin_read_logic@logic 0002  
            __end_of_dc_motor_initialize 1BE6                                   ??_main 0030  
                          __activetblptr 0002    lcd_4bit_send_string_data_pos@str_data 001C  
                                 _EEADRH 0FAA                                   _EEDATA 0FA8  
                                 _EECON2 0FA7                                   _ANSELH 0F7F  
                                 _TABLAT 0FF5                                   _OSCCON 0FD3  
           __end_of_Read_Password_EEPROM 22C2                            _tris_register 003C  
            __end_of_dc_motor_move_right 1A5A                   ?_lcd_4bit_send_command 000F  
                                 _Welcom 1A5A                                   ___wmul 231C  
                                 _led_on 1E88                                   clear_0 2078  
                                 clear_1 2084                    led_initialize@pin_obj 000F  
                       lcd_send_4bit@Ret 000D                                   isa$std 0001  
                       lcd_send_4bit@lcd 0009         Read_Password_EEPROM@Return_Value 0008  
                __end_of_DATAEE_ReadByte 2376                                ??_led_off 000A  
                           __pdataCOMRAM 0032                            led_on@pin_obj 000C  
                           __mediumconst 0000                           _password_check 0058  
                                 tblptrh 0FF7                                   tblptrl 0FF6  
                                 tblptru 0FF8                        _SYSTEM_Initialize 2388  
                              ?_APP_Init 0001                               __accesstop 0060  
                __end_of__initialization 208A                       ?_SYSTEM_Initialize 0001  
                          ___rparam_used 0001                            ?_Set_Password 001E  
                      led_initialize@led 000C                        led_initialize@ret 000E  
                _lcd_4bit_send_char_data 20F4           ?_lcd_4bit_send_string_data_pos 0019  
                 ??_gpio_pin_write_logic 0003                           __pcstackCOMRAM 0001  
                           __pidataBANK0 2376                      ??_SYSTEM_Initialize 0001  
                       _DATAEE_WriteByte 2202                      Check_Password@F3470 004E  
               lcd_4bit_send_command@Ret 0011                 lcd_4bit_send_command@lcd 000F  
               Set_Password@Keypad_Value 002A                 dc_motor_initialize@pin_1 000F  
               dc_motor_initialize@pin_2 0010                __end_of_SYSTEM_Initialize 2392  
                             __pbssBANK0 0072                               ??_APP_Init 0016  
                         ??_Set_Password 0020                                  ?_Welcom 0001  
                                ?___wmul 0001                                  ?_led_on 0009  
                       ?_DATAEE_ReadByte 0001                     _Read_Password_EEPROM 2288  
                 Check_Password@Password 001E                                  _TBLPTRH 0FF7  
                                _TBLPTRL 0FF6                                  _TBLPTRU 0FF8  
                                _OSCTUNE 0F9B                        ?_keypad_get_value 0009  
               dc_motor_move_right@pin_1 000C                 dc_motor_move_right@pin_2 000D  
                       ??_led_initialize 000D                       ??_keypad_get_value 000B  
                             _btn_values 1001        __end_of_lcd_4bit_send_string_data 1D5E  
                   DATAEE_WriteByte@bAdd 0001      lcd_4bit_send_string_data_pos@coulmn 001B  
              ??_lcd_4bit_send_char_data 0011                                  __Hparam 0000  
                                __Lparam 0000                      _gpio_pin_initialize 1E0E  
                    _gpio_pin_read_logic 1BE6                 keypad_initialize@num_col 000F  
                           __psmallconst 1000                 keypad_initialize@num_row 000E  
                                __pcinit 2032                                  __ramtop 1000  
                                __ptext0 106E                                  __ptext1 1E88  
                                __ptext2 1EF6                                  __ptext3 18C6  
                                __ptext4 1990                                  __ptext5 1A5A  
                                __ptext6 15D6                                  __ptext7 2388  
                                __ptext8 22C2                                  __ptext9 2392  
                                _led_off 1EF6                    ?_Read_Password_EEPROM 0003  
        ??_gpio_pin_direction_initialize 0002                    _OSCILLATOR_Initialize 2392  
               ??_PIN_MANAGER_Initialize 0001                                  _motor_1 004C  
                   ?_gpio_pin_initialize 0009                     ?_gpio_pin_read_logic 0001  
                   end_of_initialization 208A               __end_of_lcd_4bit_initialze 17DC  
                          _Password_text 0072                            __Lmediumconst 0000  
                         led_off@pin_obj 000C             keypad_get_value@cols_counter 0010  
                ??_lcd_4bit_send_command 0011                            _dc_motor_stop 18C6  
                  __end_of_lcd_send_4bit 20F4                                  postdec1 0FE5  
                                postdec2 0FDD                                  postinc0 0FEE  
                                postinc1 0FE6                                  postinc2 0FDE  
                     dc_motor_stop@pin_1 000C                       dc_motor_stop@pin_2 000D  
      lcd_4bit_send_string_data@str_data 0013          __end_of_lcd_4bit_send_char_data 2152  
             lcd_4bit_send_char_data@Ret 0011             keypad_get_value@column_logic 000D  
                   __end_of_Set_Password 16EE               lcd_4bit_send_char_data@lcd 000F  
                  ??_gpio_pin_initialize 000A                    ??_gpio_pin_read_logic 0003  
               __end_of_DATAEE_WriteByte 2246              lcd_4bit_initialze@l_counter 0014  
                             led_off@led 0009                               led_off@ret 000B  
                         ?_dc_motor_stop 0009                      _lcd_4bit_set_cursor 1D5E  
                  keypad_get_value@count 000E                    keypad_get_value@value 000A  
                         __end_of_Welcom 1B24            convert_uint16_to_string@F3475 0078  
                         __end_of___wmul 2342                            __pidataCOMRAM 2342  
                 ??_Read_Password_EEPROM 0005                           __end_of_led_on 1EF6  
                 ?_OSCILLATOR_Initialize 0001                 Set_Password@Return_Value 0028  
                 Welcom@l_welcom_counter 001B                      start_initialization 2032  
           ?_lcd_4bit_send_enable_signal 0009                     ?_lcd_4bit_set_cursor 0012  
  __end_of_gpio_pin_direction_initialize 14B8            _gpio_pin_direction_initialize 1376  
                           _lat_register 0032                      DATAEE_ReadByte@bAdd 0001  
                               ??_Welcom 0019                                 ??___wmul 0005  
                               ??_led_on 000A                              __pdataBANK0 0060  
                  Set_Password@l_Counter 002E             lcd_4bit_send_command@command 0010  
                       dc_motor_stop@obj 0009                         dc_motor_stop@ret 000B  
                            __pbssCOMRAM 004E                    ??_lcd_4bit_set_cursor 0015  
                         _Check_Password 1224           gpio_pin_write_logic@pin_config 0001  
                        ??_dc_motor_stop 000A                   _PIN_MANAGER_Initialize 22C2  
              gpio_pin_write_logic@logic 0002                                 ?_led_off 0009  
                            __smallconst 1000                   __end_of_Check_Password 1376  
                               _APP_Init 22F2                           ___wmul@product 0005  
             ?_lcd_4bit_send_string_data 0012                  Check_Password@Ret_value 002A  
                           _Set_Password 15D6            __end_of_lcd_4bit_send_command 21B0  
                               _PIR2bits 0FA1         gpio_pin_direction_initialize@Ret 0007  
                    _dc_motor_initialize 1B24                       _lcd_4bit_initialze 16EE  
                      ___wmul@multiplier 0001                      ?_lcd_4bit_initialze 0012  
gpio_pin_direction_initialize@pin_config 0001                   gpio_pin_initialize@Ret 000B  
                              led_on@led 0009                                led_on@ret 000B  
                        ?_Check_Password 001E                    DATAEE_WriteByte@bData 0003  
                   ?_dc_motor_initialize 000C                  gpio_pin_write_logic@Ret 0008  
                            _INTCON2bits 0FF1                 ?_lcd_4bit_send_char_data 000F  
                              copy_data0 2046                                copy_data1 2066  
                Check_Password@l_Counter 002F                        _keypad_initialize 1FCE  
                      ?_DATAEE_WriteByte 0001                      _dc_motor_move_right 1990  
                 gpio_pin_read_logic@Ret 0007               Check_Password@Keypad_Value 002B  
                     ?_keypad_initialize 000C                       ??_DATAEE_WriteByte 0004  
                   ??_lcd_4bit_initialze 0013                               _EECON1bits 0FA6  
                          _Program_Count 0059                                 _Password 0056  
                               __Hrparam 0000         lcd_4bit_send_string_data_pos@Ret 001D  
       lcd_4bit_send_string_data_pos@lcd 0019         lcd_4bit_send_string_data_pos@row 001A  
                               __Lrparam 0000                      ??_keypad_initialize 000D  
                ??_OSCILLATOR_Initialize 0001                   lcd_4bit_set_cursor@Ret 0017  
                 lcd_4bit_set_cursor@lcd 0012                   lcd_4bit_set_cursor@row 0013  
                   ?_dc_motor_move_right 0009              __end_of_gpio_pin_initialize 1E88  
                     __end_of_btn_values 1011              __end_of_gpio_pin_read_logic 1CA6  
                  ??_dc_motor_initialize 000D                __end_of_keypad_initialize 2032  
                               __ptext10 2288                                 __ptext11 235E  
                               __ptext20 231C                                 __ptext12 2202  
                               __ptext21 22F2                                 __ptext13 1224  
                               __ptext30 14B8                                 __ptext22 1F64  
                               __ptext14 21B0                                 __ptext31 1376  
                               __ptext23 16EE                                 __ptext15 1D5E  
                               __ptext24 2152                                 __ptext16 1CA6  
                               __ptext25 2094                                 __ptext17 20F4  
                               __ptext26 2246                                 __ptext18 17DC  
                               __ptext27 1FCE                                 __ptext19 1BE6  
                               __ptext28 1B24                                 __ptext29 1E0E  
                 dc_motor_move_right@obj 0009                   dc_motor_move_right@ret 000B  
            DATAEE_WriteByte@GIEBitValue 0004                        ??_DATAEE_ReadByte 0003  
                       _keypad_get_value 17DC                                 isa$xinst 0000  
                     lcd_send_4bit@value 000A             Check_Password@Enter_Password 0028  
                  ??_dc_motor_move_right 000A       lcd_4bit_send_string_data@l_counter 0018  
                             _INTCONbits 0FF2             __end_of_gpio_pin_write_logic 15D6  
         lcd_4bit_send_enable_signal@Ret 000A           lcd_4bit_send_enable_signal@lcd 0009  
                ?_PIN_MANAGER_Initialize 0001                   lcd_send_4bit@l_counter 000E  
                          _lcd_send_4bit 2094              __end_of_lcd_4bit_set_cursor 1E0E  
                      Set_Password@F3462 0052          ??_lcd_4bit_send_string_data_pos 001D  
                          _port_register 0060           __end_of_PIN_MANAGER_Initialize 22F2  
            lcd_4bit_send_char_data@data 0010              ??_lcd_4bit_send_string_data 0015  
                  __end_of_dc_motor_stop 1990                           _led_initialize 1F64  
                  lcd_4bit_initialze@Ret 0015                    lcd_4bit_initialze@lcd 0012  
